(lp0
(S'cppflags'
p1
ccopy_reg
_reconstructor
p2
(cino.utils
SpaceList
p3
c__builtin__
list
p4
(lp5
S'-mmcu=atmega2560'
p6
aS'-DF_CPU=16000000L'
p7
aS'-DARDUINO=105'
p8
aS'-I/usr/share/arduino/hardware/arduino/cores/arduino'
p9
aS'-ffunction-sections'
p10
aS'-fdata-sections'
p11
aS'-g'
p12
aS'-Os'
p13
aS'-w'
p14
aS'-I/usr/share/arduino/hardware/arduino/variants/mega'
p15
aS'-Ilib/Roomba'
p16
aS'-I/usr/share/arduino/libraries/Servo'
p17
aS'-Ilib/Motor'
p18
aS'-I/usr/share/arduino/hardware/arduino/cores/arduino'
p19
aS'-I/usr/share/arduino/hardware/arduino/cores/arduino/avr-libc'
p20
atp21
Rp22
tp23
a(S'version.txt'
p24
S'/usr/share/arduino/lib/version.txt'
p25
tp26
a(S'used_libs'
p27
(lp28
S'lib/Roomba'
p29
aS'/usr/share/arduino/libraries/Servo'
p30
aS'lib/Motor'
p31
aS'/usr/share/arduino/hardware/arduino/cores/arduino'
p32
atp33
a(S'cc'
p34
S'/usr/share/arduino/hardware/tools/avr/bin/avr-gcc'
p35
tp36
a(S'make'
p37
S'/usr/bin/make'
p38
tp39
a(S'build_dir'
p40
S'.build/mega2560'
p41
tp42
a(S'arduino_core_dir'
p43
g32
tp44
a(S'boards.txt'
p45
(lp46
S'/usr/share/arduino/hardware/arduino/boards.txt'
p47
atp48
a(S'cxxflags'
p49
g2
(g3
g4
(lp50
S'-fno-exceptions'
p51
atp52
Rp53
tp54
a(S'arduino_variants_dir'
p55
S'/usr/share/arduino/hardware/arduino/variants'
p56
tp57
a(S'deps'
p58
g2
(g3
g4
(lp59
S'.build/mega2560/src/dependencies.d'
p60
aS'.build/mega2560/Roomba/dependencies.d'
p61
aS'.build/mega2560/arduino/dependencies.d'
p62
aS'.build/mega2560/Servo/dependencies.d'
p63
aS'.build/mega2560/Motor/dependencies.d'
p64
atp65
Rp66
tp67
a(S'ar'
p68
S'/usr/share/arduino/hardware/tools/avr/bin/avr-ar'
p69
tp70
a(S'names'
p71
(dp72
S'cpp'
p73
S'%s.cpp'
p74
sS'obj'
p75
S'%s.o'
p76
sg58
S'%s.d'
p77
sS'lib'
p78
S'lib%s.a'
p79
stp80
a(S'cflags'
p81
g2
(g3
g4
(lp82
tp83
Rp84
tp85
a(S'ldflags'
p86
g2
(g3
g4
(lp87
g6
aS'-Wl,-Os'
p88
aS'-Wl,--gc-sections'
p89
atp90
Rp91
tp92
a(S'arduino_libraries_dir'
p93
S'/usr/share/arduino/libraries'
p94
tp95
a(S'arduino_lib_version'
p96
g2
(cino.environment
Version
p97
c__builtin__
tuple
p98
(I1
I0
I5
tp99
tp100
Rp101
tp102
a(S'objcopy'
p103
S'/usr/share/arduino/hardware/tools/avr/bin/avr-objcopy'
p104
tp105
a(S'board_models'
p106
cino.environment
BoardModels
p107
((lp108
(lp109
S'uno'
p110
a(dp111
S'build'
p112
(dp113
S'core'
p114
S'arduino'
p115
sS'mcu'
p116
S'atmega328p'
p117
sS'f_cpu'
p118
S'16000000L'
p119
sS'variant'
p120
S'standard'
p121
ssS'bootloader'
p122
(dp123
S'extended_fuses'
p124
S'0x05'
p125
sS'high_fuses'
p126
S'0xde'
p127
sS'low_fuses'
p128
S'0xff'
p129
sS'lock_bits'
p130
S'0x0F'
p131
sS'file'
p132
S'optiboot_atmega328.hex'
p133
sS'path'
p134
S'optiboot'
p135
sS'unlock_bits'
p136
S'0x3F'
p137
ssS'upload'
p138
(dp139
S'speed'
p140
S'115200'
p141
sS'maximum_size'
p142
S'32256'
p143
sS'protocol'
p144
S'arduino'
p145
ssS'name'
p146
S'Arduino Uno'
p147
sS'_coredir'
p148
S'/usr/share/arduino/hardware/arduino'
p149
saa(lp150
S'atmega328'
p151
a(dp152
S'build'
p153
(dp154
S'core'
p155
S'arduino'
p156
sS'mcu'
p157
S'atmega328p'
p158
sS'f_cpu'
p159
S'16000000L'
p160
sS'variant'
p161
S'standard'
p162
ssS'bootloader'
p163
(dp164
S'extended_fuses'
p165
S'0x05'
p166
sS'high_fuses'
p167
S'0xDA'
p168
sS'low_fuses'
p169
S'0xFF'
p170
sS'lock_bits'
p171
S'0x0F'
p172
sS'file'
p173
S'ATmegaBOOT_168_atmega328.hex'
p174
sS'path'
p175
S'atmega'
p176
sS'unlock_bits'
p177
S'0x3F'
p178
ssS'upload'
p179
(dp180
S'speed'
p181
S'57600'
p182
sS'maximum_size'
p183
S'30720'
p184
sS'protocol'
p185
S'arduino'
p186
ssS'name'
p187
S'Arduino Duemilanove w/ ATmega328'
p188
sg148
S'/usr/share/arduino/hardware/arduino'
p189
saa(lp190
S'diecimila'
p191
a(dp192
S'build'
p193
(dp194
S'core'
p195
S'arduino'
p196
sS'mcu'
p197
S'atmega168'
p198
sS'f_cpu'
p199
S'16000000L'
p200
sS'variant'
p201
S'standard'
p202
ssS'bootloader'
p203
(dp204
S'extended_fuses'
p205
S'0x00'
p206
sS'high_fuses'
p207
S'0xdd'
p208
sS'low_fuses'
p209
S'0xff'
p210
sS'lock_bits'
p211
S'0x0F'
p212
sS'file'
p213
S'ATmegaBOOT_168_diecimila.hex'
p214
sS'path'
p215
S'atmega'
p216
sS'unlock_bits'
p217
S'0x3F'
p218
ssS'upload'
p219
(dp220
S'speed'
p221
S'19200'
p222
sS'maximum_size'
p223
S'14336'
p224
sS'protocol'
p225
S'arduino'
p226
ssS'name'
p227
S'Arduino Diecimila or Duemilanove w/ ATmega168'
p228
sg148
S'/usr/share/arduino/hardware/arduino'
p229
saa(lp230
S'nano328'
p231
a(dp232
S'build'
p233
(dp234
S'core'
p235
S'arduino'
p236
sS'mcu'
p237
S'atmega328p'
p238
sS'f_cpu'
p239
S'16000000L'
p240
sS'variant'
p241
S'eightanaloginputs'
p242
ssS'bootloader'
p243
(dp244
S'extended_fuses'
p245
S'0x05'
p246
sS'high_fuses'
p247
S'0xDA'
p248
sS'low_fuses'
p249
S'0xFF'
p250
sS'lock_bits'
p251
S'0x0F'
p252
sS'file'
p253
S'ATmegaBOOT_168_atmega328.hex'
p254
sS'path'
p255
S'atmega'
p256
sS'unlock_bits'
p257
S'0x3F'
p258
ssS'upload'
p259
(dp260
S'speed'
p261
S'57600'
p262
sS'maximum_size'
p263
S'30720'
p264
sS'protocol'
p265
S'arduino'
p266
ssS'name'
p267
S'Arduino Nano w/ ATmega328'
p268
sg148
S'/usr/share/arduino/hardware/arduino'
p269
saa(lp270
S'nano'
p271
a(dp272
S'build'
p273
(dp274
S'core'
p275
S'arduino'
p276
sS'mcu'
p277
S'atmega168'
p278
sS'f_cpu'
p279
S'16000000L'
p280
sS'variant'
p281
S'eightanaloginputs'
p282
ssS'bootloader'
p283
(dp284
S'extended_fuses'
p285
S'0x00'
p286
sS'high_fuses'
p287
S'0xdd'
p288
sS'low_fuses'
p289
S'0xff'
p290
sS'lock_bits'
p291
S'0x0F'
p292
sS'file'
p293
S'ATmegaBOOT_168_diecimila.hex'
p294
sS'path'
p295
S'atmega'
p296
sS'unlock_bits'
p297
S'0x3F'
p298
ssS'upload'
p299
(dp300
S'speed'
p301
S'19200'
p302
sS'maximum_size'
p303
S'14336'
p304
sS'protocol'
p305
S'arduino'
p306
ssS'name'
p307
S'Arduino Nano w/ ATmega168'
p308
sg148
S'/usr/share/arduino/hardware/arduino'
p309
saa(lp310
S'mega2560'
p311
a(dp312
S'build'
p313
(dp314
S'core'
p315
S'arduino'
p316
sS'mcu'
p317
S'atmega2560'
p318
sS'f_cpu'
p319
S'16000000L'
p320
sS'variant'
p321
S'mega'
p322
ssS'bootloader'
p323
(dp324
S'extended_fuses'
p325
S'0xFD'
p326
sS'high_fuses'
p327
S'0xD8'
p328
sS'low_fuses'
p329
S'0xFF'
p330
sS'lock_bits'
p331
S'0x0F'
p332
sS'file'
p333
S'stk500boot_v2_mega2560.hex'
p334
sS'path'
p335
S'stk500v2'
p336
sS'unlock_bits'
p337
S'0x3F'
p338
ssS'upload'
p339
(dp340
S'speed'
p341
S'115200'
p342
sS'maximum_size'
p343
S'258048'
p344
sS'protocol'
p345
S'wiring'
p346
ssS'name'
p347
S'Arduino Mega 2560 or Mega ADK'
p348
sg148
S'/usr/share/arduino/hardware/arduino'
p349
saa(lp350
S'mega'
p351
a(dp352
S'build'
p353
(dp354
S'core'
p355
S'arduino'
p356
sS'mcu'
p357
S'atmega1280'
p358
sS'f_cpu'
p359
S'16000000L'
p360
sS'variant'
p361
S'mega'
p362
ssS'bootloader'
p363
(dp364
S'extended_fuses'
p365
S'0xF5'
p366
sS'high_fuses'
p367
S'0xDA'
p368
sS'low_fuses'
p369
S'0xFF'
p370
sS'lock_bits'
p371
S'0x0F'
p372
sS'file'
p373
S'ATmegaBOOT_168_atmega1280.hex'
p374
sS'path'
p375
S'atmega'
p376
sS'unlock_bits'
p377
S'0x3F'
p378
ssS'upload'
p379
(dp380
S'speed'
p381
S'57600'
p382
sS'maximum_size'
p383
S'126976'
p384
sS'protocol'
p385
S'arduino'
p386
ssS'name'
p387
S'Arduino Mega (ATmega1280)'
p388
sg148
S'/usr/share/arduino/hardware/arduino'
p389
saa(lp390
S'leonardo'
p391
a(dp392
S'build'
p393
(dp394
S'core'
p395
S'arduino'
p396
sS'f_cpu'
p397
S'16000000L'
p398
sS'vid'
p399
S'0x2341'
p400
sS'pid'
p401
S'0x8036'
p402
sS'variant'
p403
S'leonardo'
p404
sS'mcu'
p405
S'atmega32u4'
p406
ssS'bootloader'
p407
(dp408
S'extended_fuses'
p409
S'0xcb'
p410
sS'high_fuses'
p411
S'0xd8'
p412
sS'low_fuses'
p413
S'0xff'
p414
sS'lock_bits'
p415
S'0x2F'
p416
sS'file'
p417
S'Caterina-Leonardo.hex'
p418
sS'path'
p419
S'caterina'
p420
sS'unlock_bits'
p421
S'0x3F'
p422
ssS'upload'
p423
(dp424
S'speed'
p425
S'57600'
p426
sS'maximum_size'
p427
S'28672'
p428
sS'protocol'
p429
S'avr109'
p430
sS'disable_flushing'
p431
S'true'
p432
ssS'name'
p433
S'Arduino Leonardo'
p434
sg148
S'/usr/share/arduino/hardware/arduino'
p435
saa(lp436
S'esplora'
p437
a(dp438
S'build'
p439
(dp440
S'core'
p441
S'arduino'
p442
sS'f_cpu'
p443
S'16000000L'
p444
sS'vid'
p445
S'0x2341'
p446
sS'pid'
p447
S'0x803C'
p448
sS'variant'
p449
S'leonardo'
p450
sS'mcu'
p451
S'atmega32u4'
p452
ssS'bootloader'
p453
(dp454
S'extended_fuses'
p455
S'0xcb'
p456
sS'high_fuses'
p457
S'0xd8'
p458
sS'low_fuses'
p459
S'0xff'
p460
sS'lock_bits'
p461
S'0x2F'
p462
sS'file'
p463
S'Caterina-Esplora.hex'
p464
sS'path'
p465
S'caterina'
p466
sS'unlock_bits'
p467
S'0x3F'
p468
ssS'upload'
p469
(dp470
S'speed'
p471
S'57600'
p472
sS'maximum_size'
p473
S'28672'
p474
sS'protocol'
p475
S'avr109'
p476
sS'disable_flushing'
p477
S'true'
p478
ssS'name'
p479
S'Arduino Esplora'
p480
sg148
S'/usr/share/arduino/hardware/arduino'
p481
saa(lp482
S'micro'
p483
a(dp484
S'build'
p485
(dp486
S'core'
p487
S'arduino'
p488
sS'f_cpu'
p489
S'16000000L'
p490
sS'vid'
p491
S'0x2341'
p492
sS'pid'
p493
S'0x8037'
p494
sS'variant'
p495
S'micro'
p496
sS'mcu'
p497
S'atmega32u4'
p498
ssS'bootloader'
p499
(dp500
S'extended_fuses'
p501
S'0xcb'
p502
sS'high_fuses'
p503
S'0xd8'
p504
sS'low_fuses'
p505
S'0xff'
p506
sS'lock_bits'
p507
S'0x2F'
p508
sS'file'
p509
S'Caterina-Micro.hex'
p510
sS'path'
p511
S'caterina'
p512
sS'unlock_bits'
p513
S'0x3F'
p514
ssS'upload'
p515
(dp516
S'speed'
p517
S'57600'
p518
sS'maximum_size'
p519
S'28672'
p520
sS'protocol'
p521
S'avr109'
p522
sS'disable_flushing'
p523
S'true'
p524
ssS'name'
p525
S'Arduino Micro'
p526
sg148
S'/usr/share/arduino/hardware/arduino'
p527
saa(lp528
S'mini328'
p529
a(dp530
S'build'
p531
(dp532
S'core'
p533
S'arduino'
p534
sS'mcu'
p535
S'atmega328p'
p536
sS'f_cpu'
p537
S'16000000L'
p538
sS'variant'
p539
S'eightanaloginputs'
p540
ssS'bootloader'
p541
(dp542
S'extended_fuses'
p543
S'0x05'
p544
sS'high_fuses'
p545
S'0xd8'
p546
sS'low_fuses'
p547
S'0xff'
p548
sS'lock_bits'
p549
S'0x0F'
p550
sS'file'
p551
S'optiboot_atmega328-Mini.hex'
p552
sS'path'
p553
S'optiboot'
p554
sS'unlock_bits'
p555
S'0x3F'
p556
ssS'upload'
p557
(dp558
S'speed'
p559
S'115200'
p560
sS'maximum_size'
p561
S'28672'
p562
sS'protocol'
p563
S'arduino'
p564
ssS'name'
p565
S'Arduino Mini w/ ATmega328'
p566
sg148
S'/usr/share/arduino/hardware/arduino'
p567
saa(lp568
S'mini'
p569
a(dp570
S'build'
p571
(dp572
S'core'
p573
S'arduino'
p574
sS'mcu'
p575
S'atmega168'
p576
sS'f_cpu'
p577
S'16000000L'
p578
sS'variant'
p579
S'eightanaloginputs'
p580
ssS'bootloader'
p581
(dp582
S'extended_fuses'
p583
S'0x00'
p584
sS'high_fuses'
p585
S'0xdd'
p586
sS'low_fuses'
p587
S'0xff'
p588
sS'lock_bits'
p589
S'0x0F'
p590
sS'file'
p591
S'ATmegaBOOT_168_ng.hex'
p592
sS'path'
p593
S'atmega'
p594
sS'unlock_bits'
p595
S'0x3F'
p596
ssS'upload'
p597
(dp598
S'speed'
p599
S'19200'
p600
sS'maximum_size'
p601
S'14336'
p602
sS'protocol'
p603
S'arduino'
p604
ssS'name'
p605
S'Arduino Mini w/ ATmega168'
p606
sg148
S'/usr/share/arduino/hardware/arduino'
p607
saa(lp608
S'ethernet'
p609
a(dp610
S'build'
p611
(dp612
S'f_cpu'
p613
S'16000000L'
p614
sS'mcu'
p615
S'atmega328p'
p616
sS'variant'
p617
S'standard'
p618
sS'core'
p619
S'arduino'
p620
ssS'bootloader'
p621
(dp622
S'extended_fuses'
p623
S'0x05'
p624
sS'high_fuses'
p625
S'0xde'
p626
sS'low_fuses'
p627
S'0xff'
p628
sS'lock_bits'
p629
S'0x0F'
p630
sS'file'
p631
S'optiboot_atmega328.hex'
p632
sS'path'
p633
S'optiboot'
p634
sS'unlock_bits'
p635
S'0x3F'
p636
ssS'upload'
p637
(dp638
S'speed'
p639
S'115200'
p640
sS'maximum_size'
p641
S'32256'
p642
sS'protocol'
p643
S'arduino'
p644
ssS'name'
p645
S'Arduino Ethernet'
p646
sg148
S'/usr/share/arduino/hardware/arduino'
p647
saa(lp648
S'fio'
p649
a(dp650
S'build'
p651
(dp652
S'core'
p653
S'arduino'
p654
sS'mcu'
p655
S'atmega328p'
p656
sS'f_cpu'
p657
S'8000000L'
p658
sS'variant'
p659
S'eightanaloginputs'
p660
ssS'bootloader'
p661
(dp662
S'extended_fuses'
p663
S'0x05'
p664
sS'high_fuses'
p665
S'0xDA'
p666
sS'low_fuses'
p667
S'0xFF'
p668
sS'lock_bits'
p669
S'0x0F'
p670
sS'file'
p671
S'ATmegaBOOT_168_atmega328_pro_8MHz.hex'
p672
sS'path'
p673
S'arduino:atmega'
p674
sS'unlock_bits'
p675
S'0x3F'
p676
ssS'upload'
p677
(dp678
S'speed'
p679
S'57600'
p680
sS'maximum_size'
p681
S'30720'
p682
sS'protocol'
p683
S'arduino'
p684
ssS'name'
p685
S'Arduino Fio'
p686
sg148
S'/usr/share/arduino/hardware/arduino'
p687
saa(lp688
S'bt328'
p689
a(dp690
S'build'
p691
(dp692
S'core'
p693
S'arduino'
p694
sS'mcu'
p695
S'atmega328p'
p696
sS'f_cpu'
p697
S'16000000L'
p698
sS'variant'
p699
S'eightanaloginputs'
p700
ssS'bootloader'
p701
(dp702
S'extended_fuses'
p703
S'0x05'
p704
sS'high_fuses'
p705
S'0xd8'
p706
sS'low_fuses'
p707
S'0xff'
p708
sS'lock_bits'
p709
S'0x0F'
p710
sS'file'
p711
S'ATmegaBOOT_168_atmega328_bt.hex'
p712
sS'path'
p713
S'bt'
p714
sS'unlock_bits'
p715
S'0x3F'
p716
ssS'upload'
p717
(dp718
S'speed'
p719
S'19200'
p720
sS'maximum_size'
p721
S'28672'
p722
sS'protocol'
p723
S'arduino'
p724
sS'disable_flushing'
p725
S'true'
p726
ssS'name'
p727
S'Arduino BT w/ ATmega328'
p728
sg148
S'/usr/share/arduino/hardware/arduino'
p729
saa(lp730
S'bt'
p731
a(dp732
S'build'
p733
(dp734
S'core'
p735
S'arduino'
p736
sS'mcu'
p737
S'atmega168'
p738
sS'f_cpu'
p739
S'16000000L'
p740
sS'variant'
p741
S'eightanaloginputs'
p742
ssS'bootloader'
p743
(dp744
S'extended_fuses'
p745
S'0x00'
p746
sS'high_fuses'
p747
S'0xdd'
p748
sS'low_fuses'
p749
S'0xff'
p750
sS'lock_bits'
p751
S'0x0F'
p752
sS'file'
p753
S'ATmegaBOOT_168.hex'
p754
sS'path'
p755
S'bt'
p756
sS'unlock_bits'
p757
S'0x3F'
p758
ssS'upload'
p759
(dp760
S'speed'
p761
S'19200'
p762
sS'maximum_size'
p763
S'14336'
p764
sS'protocol'
p765
S'arduino'
p766
sS'disable_flushing'
p767
S'true'
p768
ssS'name'
p769
S'Arduino BT w/ ATmega168'
p770
sg148
S'/usr/share/arduino/hardware/arduino'
p771
saa(lp772
S'LilyPadUSB'
p773
a(dp774
S'build'
p775
(dp776
S'core'
p777
S'arduino'
p778
sS'f_cpu'
p779
S'8000000L'
p780
sS'vid'
p781
S'0x1B4F'
p782
sS'pid'
p783
S'0x9208'
p784
sS'variant'
p785
S'leonardo'
p786
sS'mcu'
p787
S'atmega32u4'
p788
ssS'bootloader'
p789
(dp790
S'extended_fuses'
p791
S'0xce'
p792
sS'high_fuses'
p793
S'0xd8'
p794
sS'low_fuses'
p795
S'0xff'
p796
sS'lock_bits'
p797
S'0x2F'
p798
sS'file'
p799
S'Caterina-LilyPadUSB.hex'
p800
sS'path'
p801
S'caterina-LilyPadUSB'
p802
sS'unlock_bits'
p803
S'0x3F'
p804
ssS'upload'
p805
(dp806
S'speed'
p807
S'57600'
p808
sS'maximum_size'
p809
S'28672'
p810
sS'protocol'
p811
S'avr109'
p812
sS'disable_flushing'
p813
S'true'
p814
ssS'name'
p815
S'LilyPad Arduino USB'
p816
sg148
S'/usr/share/arduino/hardware/arduino'
p817
saa(lp818
S'lilypad328'
p819
a(dp820
S'build'
p821
(dp822
S'core'
p823
S'arduino'
p824
sS'mcu'
p825
S'atmega328p'
p826
sS'f_cpu'
p827
S'8000000L'
p828
sS'variant'
p829
S'standard'
p830
ssS'bootloader'
p831
(dp832
S'extended_fuses'
p833
S'0x05'
p834
sS'high_fuses'
p835
S'0xDA'
p836
sS'low_fuses'
p837
S'0xFF'
p838
sS'lock_bits'
p839
S'0x0F'
p840
sS'file'
p841
S'ATmegaBOOT_168_atmega328_pro_8MHz.hex'
p842
sS'path'
p843
S'atmega'
p844
sS'unlock_bits'
p845
S'0x3F'
p846
ssS'upload'
p847
(dp848
S'speed'
p849
S'57600'
p850
sS'maximum_size'
p851
S'30720'
p852
sS'protocol'
p853
S'arduino'
p854
ssS'name'
p855
S'LilyPad Arduino w/ ATmega328'
p856
sg148
S'/usr/share/arduino/hardware/arduino'
p857
saa(lp858
S'lilypad'
p859
a(dp860
S'build'
p861
(dp862
S'core'
p863
S'arduino'
p864
sS'mcu'
p865
S'atmega168'
p866
sS'f_cpu'
p867
S'8000000L'
p868
sS'variant'
p869
S'standard'
p870
ssS'bootloader'
p871
(dp872
S'extended_fuses'
p873
S'0x00'
p874
sS'high_fuses'
p875
S'0xdd'
p876
sS'low_fuses'
p877
S'0xe2'
p878
sS'lock_bits'
p879
S'0x0F'
p880
sS'file'
p881
S'LilyPadBOOT_168.hex'
p882
sS'path'
p883
S'lilypad'
p884
sS'unlock_bits'
p885
S'0x3F'
p886
ssS'upload'
p887
(dp888
S'speed'
p889
S'19200'
p890
sS'maximum_size'
p891
S'14336'
p892
sS'protocol'
p893
S'arduino'
p894
ssS'name'
p895
S'LilyPad Arduino w/ ATmega168'
p896
sg148
S'/usr/share/arduino/hardware/arduino'
p897
saa(lp898
S'pro5v328'
p899
a(dp900
S'build'
p901
(dp902
S'core'
p903
S'arduino'
p904
sS'mcu'
p905
S'atmega328p'
p906
sS'f_cpu'
p907
S'16000000L'
p908
sS'variant'
p909
S'standard'
p910
ssS'bootloader'
p911
(dp912
S'extended_fuses'
p913
S'0x05'
p914
sS'high_fuses'
p915
S'0xDA'
p916
sS'low_fuses'
p917
S'0xFF'
p918
sS'lock_bits'
p919
S'0x0F'
p920
sS'file'
p921
S'ATmegaBOOT_168_atmega328.hex'
p922
sS'path'
p923
S'atmega'
p924
sS'unlock_bits'
p925
S'0x3F'
p926
ssS'upload'
p927
(dp928
S'speed'
p929
S'57600'
p930
sS'maximum_size'
p931
S'30720'
p932
sS'protocol'
p933
S'arduino'
p934
ssS'name'
p935
S'Arduino Pro or Pro Mini (5V, 16 MHz) w/ ATmega328'
p936
sg148
S'/usr/share/arduino/hardware/arduino'
p937
saa(lp938
S'pro5v'
p939
a(dp940
S'build'
p941
(dp942
S'core'
p943
S'arduino'
p944
sS'mcu'
p945
S'atmega168'
p946
sS'f_cpu'
p947
S'16000000L'
p948
sS'variant'
p949
S'standard'
p950
ssS'bootloader'
p951
(dp952
S'extended_fuses'
p953
S'0x00'
p954
sS'high_fuses'
p955
S'0xdd'
p956
sS'low_fuses'
p957
S'0xff'
p958
sS'lock_bits'
p959
S'0x0F'
p960
sS'file'
p961
S'ATmegaBOOT_168_diecimila.hex'
p962
sS'path'
p963
S'atmega'
p964
sS'unlock_bits'
p965
S'0x3F'
p966
ssS'upload'
p967
(dp968
S'speed'
p969
S'19200'
p970
sS'maximum_size'
p971
S'14336'
p972
sS'protocol'
p973
S'arduino'
p974
ssS'name'
p975
S'Arduino Pro or Pro Mini (5V, 16 MHz) w/ ATmega168'
p976
sg148
S'/usr/share/arduino/hardware/arduino'
p977
saa(lp978
S'pro328'
p979
a(dp980
S'build'
p981
(dp982
S'core'
p983
S'arduino'
p984
sS'mcu'
p985
S'atmega328p'
p986
sS'f_cpu'
p987
S'8000000L'
p988
sS'variant'
p989
S'standard'
p990
ssS'bootloader'
p991
(dp992
S'extended_fuses'
p993
S'0x05'
p994
sS'high_fuses'
p995
S'0xDA'
p996
sS'low_fuses'
p997
S'0xFF'
p998
sS'lock_bits'
p999
S'0x0F'
p1000
sS'file'
p1001
S'ATmegaBOOT_168_atmega328_pro_8MHz.hex'
p1002
sS'path'
p1003
S'atmega'
p1004
sS'unlock_bits'
p1005
S'0x3F'
p1006
ssS'upload'
p1007
(dp1008
S'speed'
p1009
S'57600'
p1010
sS'maximum_size'
p1011
S'30720'
p1012
sS'protocol'
p1013
S'arduino'
p1014
ssS'name'
p1015
S'Arduino Pro or Pro Mini (3.3V, 8 MHz) w/ ATmega328'
p1016
sg148
S'/usr/share/arduino/hardware/arduino'
p1017
saa(lp1018
S'pro'
p1019
a(dp1020
S'build'
p1021
(dp1022
S'core'
p1023
S'arduino'
p1024
sS'mcu'
p1025
S'atmega168'
p1026
sS'f_cpu'
p1027
S'8000000L'
p1028
sS'variant'
p1029
S'standard'
p1030
ssS'bootloader'
p1031
(dp1032
S'extended_fuses'
p1033
S'0x00'
p1034
sS'high_fuses'
p1035
S'0xdd'
p1036
sS'low_fuses'
p1037
S'0xc6'
p1038
sS'lock_bits'
p1039
S'0x0F'
p1040
sS'file'
p1041
S'ATmegaBOOT_168_pro_8MHz.hex'
p1042
sS'path'
p1043
S'atmega'
p1044
sS'unlock_bits'
p1045
S'0x3F'
p1046
ssS'upload'
p1047
(dp1048
S'speed'
p1049
S'19200'
p1050
sS'maximum_size'
p1051
S'14336'
p1052
sS'protocol'
p1053
S'arduino'
p1054
ssS'name'
p1055
S'Arduino Pro or Pro Mini (3.3V, 8 MHz) w/ ATmega168'
p1056
sg148
S'/usr/share/arduino/hardware/arduino'
p1057
saa(lp1058
S'atmega168'
p1059
a(dp1060
S'build'
p1061
(dp1062
S'core'
p1063
S'arduino'
p1064
sS'mcu'
p1065
S'atmega168'
p1066
sS'f_cpu'
p1067
S'16000000L'
p1068
sS'variant'
p1069
S'standard'
p1070
ssS'bootloader'
p1071
(dp1072
S'extended_fuses'
p1073
S'0x00'
p1074
sS'high_fuses'
p1075
S'0xdd'
p1076
sS'low_fuses'
p1077
S'0xff'
p1078
sS'lock_bits'
p1079
S'0x0F'
p1080
sS'file'
p1081
S'ATmegaBOOT_168_ng.hex'
p1082
sS'path'
p1083
S'atmega'
p1084
sS'unlock_bits'
p1085
S'0x3F'
p1086
ssS'upload'
p1087
(dp1088
S'speed'
p1089
S'19200'
p1090
sS'maximum_size'
p1091
S'14336'
p1092
sS'protocol'
p1093
S'arduino'
p1094
ssS'name'
p1095
S'Arduino NG or older w/ ATmega168'
p1096
sg148
S'/usr/share/arduino/hardware/arduino'
p1097
saa(lp1098
S'atmega8'
p1099
a(dp1100
S'build'
p1101
(dp1102
S'core'
p1103
S'arduino'
p1104
sS'mcu'
p1105
S'atmega8'
p1106
sS'f_cpu'
p1107
S'16000000L'
p1108
sS'variant'
p1109
S'standard'
p1110
ssS'bootloader'
p1111
(dp1112
S'high_fuses'
p1113
S'0xca'
p1114
sS'low_fuses'
p1115
S'0xdf'
p1116
sS'lock_bits'
p1117
S'0x0F'
p1118
sS'file'
p1119
S'ATmegaBOOT-prod-firmware-2009-11-07.hex'
p1120
sS'path'
p1121
S'atmega8'
p1122
sS'unlock_bits'
p1123
S'0x3F'
p1124
ssS'upload'
p1125
(dp1126
S'speed'
p1127
S'19200'
p1128
sS'maximum_size'
p1129
S'7168'
p1130
sS'protocol'
p1131
S'arduino'
p1132
ssS'name'
p1133
S'Arduino NG or older w/ ATmega8'
p1134
sg148
S'/usr/share/arduino/hardware/arduino'
p1135
saa(lp1136
S'robotControl'
p1137
a(dp1138
S'build'
p1139
(dp1140
S'core'
p1141
S'robot'
p1142
sS'f_cpu'
p1143
S'16000000L'
p1144
sS'vid'
p1145
S'0x2341'
p1146
sS'pid'
p1147
S'0x8038'
p1148
sS'variant'
p1149
S'robot_control'
p1150
sS'mcu'
p1151
S'atmega32u4'
p1152
ssS'bootloader'
p1153
(dp1154
S'extended_fuses'
p1155
S'0xcb'
p1156
sS'high_fuses'
p1157
S'0xd8'
p1158
sS'low_fuses'
p1159
S'0xff'
p1160
sS'lock_bits'
p1161
S'0x2F'
p1162
sS'file'
p1163
S'Caterina-Robot-Control.hex'
p1164
sS'path'
p1165
S'caterina-Arduino_Robot'
p1166
sS'unlock_bits'
p1167
S'0x3F'
p1168
ssS'upload'
p1169
(dp1170
S'speed'
p1171
S'57600'
p1172
sS'maximum_size'
p1173
S'28672'
p1174
sS'protocol'
p1175
S'avr109'
p1176
sS'disable_flushing'
p1177
S'true'
p1178
ssS'name'
p1179
S'Arduino Robot Control'
p1180
sg148
S'/usr/share/arduino/hardware/arduino'
p1181
saa(lp1182
S'robotMotor'
p1183
a(dp1184
S'build'
p1185
(dp1186
S'core'
p1187
S'robot'
p1188
sS'f_cpu'
p1189
S'16000000L'
p1190
sS'vid'
p1191
S'0x2341'
p1192
sS'pid'
p1193
S'0x8039'
p1194
sS'variant'
p1195
S'robot_motor'
p1196
sS'mcu'
p1197
S'atmega32u4'
p1198
ssS'bootloader'
p1199
(dp1200
S'extended_fuses'
p1201
S'0xcb'
p1202
sS'high_fuses'
p1203
S'0xd8'
p1204
sS'low_fuses'
p1205
S'0xff'
p1206
sS'lock_bits'
p1207
S'0x2F'
p1208
sS'file'
p1209
S'Caterina-Robot-Motor.hex'
p1210
sS'path'
p1211
S'caterina-Arduino_Robot'
p1212
sS'unlock_bits'
p1213
S'0x3F'
p1214
ssS'upload'
p1215
(dp1216
S'speed'
p1217
S'57600'
p1218
sS'maximum_size'
p1219
S'28672'
p1220
sS'protocol'
p1221
S'avr109'
p1222
sS'disable_flushing'
p1223
S'true'
p1224
ssS'name'
p1225
S'Arduino Robot Motor'
p1226
sg148
S'/usr/share/arduino/hardware/arduino'
p1227
saatp1228
Rp1229
(dp1230
S'default'
p1231
S'uno'
p1232
sbtp1233
a(S'cxx'
p1234
S'/usr/share/arduino/hardware/tools/avr/bin/avr-g++'
p1235
tp1236
a.