(lp0
(S'cppflags'
p1
ccopy_reg
_reconstructor
p2
(cino.utils
SpaceList
p3
c__builtin__
list
p4
(lp5
S'-mmcu=atmega2560'
p6
aS'-DF_CPU=16000000L'
p7
aS'-DARDUINO=105'
p8
aS'-I/usr/share/arduino/hardware/arduino/cores/arduino'
p9
aS'-ffunction-sections'
p10
aS'-fdata-sections'
p11
aS'-g'
p12
aS'-Os'
p13
aS'-w'
p14
aS'-I/usr/share/arduino/hardware/arduino/variants/mega'
p15
aS'-Ilib/Roomba'
p16
aS'-Ilib/Roomba/doc'
p17
aS'-I/usr/share/arduino/libraries/Servo'
p18
aS'-Ilib/Motor'
p19
aS'-I/usr/share/arduino/hardware/arduino/cores/arduino'
p20
aS'-I/usr/share/arduino/hardware/arduino/cores/arduino/avr-libc'
p21
atp22
Rp23
tp24
a(S'cxx'
p25
S'/usr/share/arduino/hardware/tools/avr/bin/avr-g++'
p26
tp27
a(S'arduino_libraries_dir'
p28
S'/usr/share/arduino/libraries'
p29
tp30
a(S'avrdude'
p31
S'/usr/share/arduino/hardware/tools/avrdude'
p32
tp33
a(S'ar'
p34
S'/usr/share/arduino/hardware/tools/avr/bin/avr-ar'
p35
tp36
a(S'names'
p37
(dp38
S'cpp'
p39
S'%s.cpp'
p40
sS'obj'
p41
S'%s.o'
p42
sS'lib'
p43
S'lib%s.a'
p44
sS'deps'
p45
S'%s.d'
p46
stp47
a(S'ldflags'
p48
g2
(g3
g4
(lp49
g6
aS'-Wl,-Os'
p50
aS'-Wl,--gc-sections'
p51
atp52
Rp53
tp54
a(S'arduino_lib_version'
p55
g2
(cino.environment
Version
p56
c__builtin__
tuple
p57
(I1
I0
I5
tp58
tp59
Rp60
tp61
a(S'objcopy'
p62
S'/usr/share/arduino/hardware/tools/avr/bin/avr-objcopy'
p63
tp64
a(S'board_models'
p65
cino.environment
BoardModels
p66
((lp67
(lp68
S'uno'
p69
a(dp70
S'_coredir'
p71
S'/usr/share/arduino/hardware/arduino'
p72
sS'bootloader'
p73
(dp74
S'extended_fuses'
p75
S'0x05'
p76
sS'high_fuses'
p77
S'0xde'
p78
sS'low_fuses'
p79
S'0xff'
p80
sS'lock_bits'
p81
S'0x0F'
p82
sS'file'
p83
S'optiboot_atmega328.hex'
p84
sS'path'
p85
S'optiboot'
p86
sS'unlock_bits'
p87
S'0x3F'
p88
ssS'upload'
p89
(dp90
S'protocol'
p91
S'arduino'
p92
sS'maximum_size'
p93
S'32256'
p94
sS'speed'
p95
S'115200'
p96
ssS'name'
p97
S'Arduino Uno'
p98
sS'build'
p99
(dp100
S'core'
p101
S'arduino'
p102
sS'mcu'
p103
S'atmega328p'
p104
sS'f_cpu'
p105
S'16000000L'
p106
sS'variant'
p107
S'standard'
p108
ssaa(lp109
S'atmega328'
p110
a(dp111
g71
S'/usr/share/arduino/hardware/arduino'
p112
sS'bootloader'
p113
(dp114
S'extended_fuses'
p115
S'0x05'
p116
sS'high_fuses'
p117
S'0xDA'
p118
sS'low_fuses'
p119
S'0xFF'
p120
sS'lock_bits'
p121
S'0x0F'
p122
sS'file'
p123
S'ATmegaBOOT_168_atmega328.hex'
p124
sS'path'
p125
S'atmega'
p126
sS'unlock_bits'
p127
S'0x3F'
p128
ssS'upload'
p129
(dp130
S'protocol'
p131
S'arduino'
p132
sS'maximum_size'
p133
S'30720'
p134
sS'speed'
p135
S'57600'
p136
ssS'name'
p137
S'Arduino Duemilanove w/ ATmega328'
p138
sS'build'
p139
(dp140
S'core'
p141
S'arduino'
p142
sS'mcu'
p143
S'atmega328p'
p144
sS'f_cpu'
p145
S'16000000L'
p146
sS'variant'
p147
S'standard'
p148
ssaa(lp149
S'diecimila'
p150
a(dp151
g71
S'/usr/share/arduino/hardware/arduino'
p152
sS'bootloader'
p153
(dp154
S'extended_fuses'
p155
S'0x00'
p156
sS'high_fuses'
p157
S'0xdd'
p158
sS'low_fuses'
p159
S'0xff'
p160
sS'lock_bits'
p161
S'0x0F'
p162
sS'file'
p163
S'ATmegaBOOT_168_diecimila.hex'
p164
sS'path'
p165
S'atmega'
p166
sS'unlock_bits'
p167
S'0x3F'
p168
ssS'upload'
p169
(dp170
S'protocol'
p171
S'arduino'
p172
sS'maximum_size'
p173
S'14336'
p174
sS'speed'
p175
S'19200'
p176
ssS'name'
p177
S'Arduino Diecimila or Duemilanove w/ ATmega168'
p178
sS'build'
p179
(dp180
S'core'
p181
S'arduino'
p182
sS'mcu'
p183
S'atmega168'
p184
sS'f_cpu'
p185
S'16000000L'
p186
sS'variant'
p187
S'standard'
p188
ssaa(lp189
S'nano328'
p190
a(dp191
g71
S'/usr/share/arduino/hardware/arduino'
p192
sS'bootloader'
p193
(dp194
S'extended_fuses'
p195
S'0x05'
p196
sS'high_fuses'
p197
S'0xDA'
p198
sS'low_fuses'
p199
S'0xFF'
p200
sS'lock_bits'
p201
S'0x0F'
p202
sS'file'
p203
S'ATmegaBOOT_168_atmega328.hex'
p204
sS'path'
p205
S'atmega'
p206
sS'unlock_bits'
p207
S'0x3F'
p208
ssS'upload'
p209
(dp210
S'protocol'
p211
S'arduino'
p212
sS'maximum_size'
p213
S'30720'
p214
sS'speed'
p215
S'57600'
p216
ssS'name'
p217
S'Arduino Nano w/ ATmega328'
p218
sS'build'
p219
(dp220
S'core'
p221
S'arduino'
p222
sS'mcu'
p223
S'atmega328p'
p224
sS'f_cpu'
p225
S'16000000L'
p226
sS'variant'
p227
S'eightanaloginputs'
p228
ssaa(lp229
S'nano'
p230
a(dp231
g71
S'/usr/share/arduino/hardware/arduino'
p232
sS'bootloader'
p233
(dp234
S'extended_fuses'
p235
S'0x00'
p236
sS'high_fuses'
p237
S'0xdd'
p238
sS'low_fuses'
p239
S'0xff'
p240
sS'lock_bits'
p241
S'0x0F'
p242
sS'file'
p243
S'ATmegaBOOT_168_diecimila.hex'
p244
sS'path'
p245
S'atmega'
p246
sS'unlock_bits'
p247
S'0x3F'
p248
ssS'upload'
p249
(dp250
S'protocol'
p251
S'arduino'
p252
sS'maximum_size'
p253
S'14336'
p254
sS'speed'
p255
S'19200'
p256
ssS'name'
p257
S'Arduino Nano w/ ATmega168'
p258
sS'build'
p259
(dp260
S'core'
p261
S'arduino'
p262
sS'mcu'
p263
S'atmega168'
p264
sS'f_cpu'
p265
S'16000000L'
p266
sS'variant'
p267
S'eightanaloginputs'
p268
ssaa(lp269
S'mega2560'
p270
a(dp271
g71
S'/usr/share/arduino/hardware/arduino'
p272
sS'bootloader'
p273
(dp274
S'extended_fuses'
p275
S'0xFD'
p276
sS'high_fuses'
p277
S'0xD8'
p278
sS'low_fuses'
p279
S'0xFF'
p280
sS'lock_bits'
p281
S'0x0F'
p282
sS'file'
p283
S'stk500boot_v2_mega2560.hex'
p284
sS'path'
p285
S'stk500v2'
p286
sS'unlock_bits'
p287
S'0x3F'
p288
ssS'upload'
p289
(dp290
S'protocol'
p291
S'wiring'
p292
sS'maximum_size'
p293
S'258048'
p294
sS'speed'
p295
S'115200'
p296
ssS'name'
p297
S'Arduino Mega 2560 or Mega ADK'
p298
sS'build'
p299
(dp300
S'core'
p301
S'arduino'
p302
sS'mcu'
p303
S'atmega2560'
p304
sS'f_cpu'
p305
S'16000000L'
p306
sS'variant'
p307
S'mega'
p308
ssaa(lp309
S'mega'
p310
a(dp311
g71
S'/usr/share/arduino/hardware/arduino'
p312
sS'bootloader'
p313
(dp314
S'extended_fuses'
p315
S'0xF5'
p316
sS'high_fuses'
p317
S'0xDA'
p318
sS'low_fuses'
p319
S'0xFF'
p320
sS'lock_bits'
p321
S'0x0F'
p322
sS'file'
p323
S'ATmegaBOOT_168_atmega1280.hex'
p324
sS'path'
p325
S'atmega'
p326
sS'unlock_bits'
p327
S'0x3F'
p328
ssS'upload'
p329
(dp330
S'protocol'
p331
S'arduino'
p332
sS'maximum_size'
p333
S'126976'
p334
sS'speed'
p335
S'57600'
p336
ssS'name'
p337
S'Arduino Mega (ATmega1280)'
p338
sS'build'
p339
(dp340
S'core'
p341
S'arduino'
p342
sS'mcu'
p343
S'atmega1280'
p344
sS'f_cpu'
p345
S'16000000L'
p346
sS'variant'
p347
S'mega'
p348
ssaa(lp349
S'leonardo'
p350
a(dp351
g71
S'/usr/share/arduino/hardware/arduino'
p352
sS'bootloader'
p353
(dp354
S'extended_fuses'
p355
S'0xcb'
p356
sS'high_fuses'
p357
S'0xd8'
p358
sS'low_fuses'
p359
S'0xff'
p360
sS'lock_bits'
p361
S'0x2F'
p362
sS'file'
p363
S'Caterina-Leonardo.hex'
p364
sS'path'
p365
S'caterina'
p366
sS'unlock_bits'
p367
S'0x3F'
p368
ssS'upload'
p369
(dp370
S'protocol'
p371
S'avr109'
p372
sS'maximum_size'
p373
S'28672'
p374
sS'speed'
p375
S'57600'
p376
sS'disable_flushing'
p377
S'true'
p378
ssS'name'
p379
S'Arduino Leonardo'
p380
sS'build'
p381
(dp382
S'core'
p383
S'arduino'
p384
sS'f_cpu'
p385
S'16000000L'
p386
sS'vid'
p387
S'0x2341'
p388
sS'pid'
p389
S'0x8036'
p390
sS'variant'
p391
S'leonardo'
p392
sS'mcu'
p393
S'atmega32u4'
p394
ssaa(lp395
S'esplora'
p396
a(dp397
g71
S'/usr/share/arduino/hardware/arduino'
p398
sS'bootloader'
p399
(dp400
S'extended_fuses'
p401
S'0xcb'
p402
sS'high_fuses'
p403
S'0xd8'
p404
sS'low_fuses'
p405
S'0xff'
p406
sS'lock_bits'
p407
S'0x2F'
p408
sS'file'
p409
S'Caterina-Esplora.hex'
p410
sS'path'
p411
S'caterina'
p412
sS'unlock_bits'
p413
S'0x3F'
p414
ssS'upload'
p415
(dp416
S'protocol'
p417
S'avr109'
p418
sS'maximum_size'
p419
S'28672'
p420
sS'speed'
p421
S'57600'
p422
sS'disable_flushing'
p423
S'true'
p424
ssS'name'
p425
S'Arduino Esplora'
p426
sS'build'
p427
(dp428
S'core'
p429
S'arduino'
p430
sS'f_cpu'
p431
S'16000000L'
p432
sS'vid'
p433
S'0x2341'
p434
sS'pid'
p435
S'0x803C'
p436
sS'variant'
p437
S'leonardo'
p438
sS'mcu'
p439
S'atmega32u4'
p440
ssaa(lp441
S'micro'
p442
a(dp443
g71
S'/usr/share/arduino/hardware/arduino'
p444
sS'bootloader'
p445
(dp446
S'extended_fuses'
p447
S'0xcb'
p448
sS'high_fuses'
p449
S'0xd8'
p450
sS'low_fuses'
p451
S'0xff'
p452
sS'lock_bits'
p453
S'0x2F'
p454
sS'file'
p455
S'Caterina-Micro.hex'
p456
sS'path'
p457
S'caterina'
p458
sS'unlock_bits'
p459
S'0x3F'
p460
ssS'upload'
p461
(dp462
S'protocol'
p463
S'avr109'
p464
sS'maximum_size'
p465
S'28672'
p466
sS'speed'
p467
S'57600'
p468
sS'disable_flushing'
p469
S'true'
p470
ssS'name'
p471
S'Arduino Micro'
p472
sS'build'
p473
(dp474
S'core'
p475
S'arduino'
p476
sS'f_cpu'
p477
S'16000000L'
p478
sS'vid'
p479
S'0x2341'
p480
sS'pid'
p481
S'0x8037'
p482
sS'variant'
p483
S'micro'
p484
sS'mcu'
p485
S'atmega32u4'
p486
ssaa(lp487
S'mini328'
p488
a(dp489
g71
S'/usr/share/arduino/hardware/arduino'
p490
sS'bootloader'
p491
(dp492
S'extended_fuses'
p493
S'0x05'
p494
sS'high_fuses'
p495
S'0xd8'
p496
sS'low_fuses'
p497
S'0xff'
p498
sS'lock_bits'
p499
S'0x0F'
p500
sS'file'
p501
S'optiboot_atmega328-Mini.hex'
p502
sS'path'
p503
S'optiboot'
p504
sS'unlock_bits'
p505
S'0x3F'
p506
ssS'upload'
p507
(dp508
S'protocol'
p509
S'arduino'
p510
sS'maximum_size'
p511
S'28672'
p512
sS'speed'
p513
S'115200'
p514
ssS'name'
p515
S'Arduino Mini w/ ATmega328'
p516
sS'build'
p517
(dp518
S'core'
p519
S'arduino'
p520
sS'mcu'
p521
S'atmega328p'
p522
sS'f_cpu'
p523
S'16000000L'
p524
sS'variant'
p525
S'eightanaloginputs'
p526
ssaa(lp527
S'mini'
p528
a(dp529
g71
S'/usr/share/arduino/hardware/arduino'
p530
sS'bootloader'
p531
(dp532
S'extended_fuses'
p533
S'0x00'
p534
sS'high_fuses'
p535
S'0xdd'
p536
sS'low_fuses'
p537
S'0xff'
p538
sS'lock_bits'
p539
S'0x0F'
p540
sS'file'
p541
S'ATmegaBOOT_168_ng.hex'
p542
sS'path'
p543
S'atmega'
p544
sS'unlock_bits'
p545
S'0x3F'
p546
ssS'upload'
p547
(dp548
S'protocol'
p549
S'arduino'
p550
sS'maximum_size'
p551
S'14336'
p552
sS'speed'
p553
S'19200'
p554
ssS'name'
p555
S'Arduino Mini w/ ATmega168'
p556
sS'build'
p557
(dp558
S'core'
p559
S'arduino'
p560
sS'mcu'
p561
S'atmega168'
p562
sS'f_cpu'
p563
S'16000000L'
p564
sS'variant'
p565
S'eightanaloginputs'
p566
ssaa(lp567
S'ethernet'
p568
a(dp569
g71
S'/usr/share/arduino/hardware/arduino'
p570
sS'bootloader'
p571
(dp572
S'extended_fuses'
p573
S'0x05'
p574
sS'high_fuses'
p575
S'0xde'
p576
sS'low_fuses'
p577
S'0xff'
p578
sS'lock_bits'
p579
S'0x0F'
p580
sS'file'
p581
S'optiboot_atmega328.hex'
p582
sS'path'
p583
S'optiboot'
p584
sS'unlock_bits'
p585
S'0x3F'
p586
ssS'upload'
p587
(dp588
S'protocol'
p589
S'arduino'
p590
sS'maximum_size'
p591
S'32256'
p592
sS'speed'
p593
S'115200'
p594
ssS'name'
p595
S'Arduino Ethernet'
p596
sS'build'
p597
(dp598
S'variant'
p599
S'standard'
p600
sS'mcu'
p601
S'atmega328p'
p602
sS'f_cpu'
p603
S'16000000L'
p604
sS'core'
p605
S'arduino'
p606
ssaa(lp607
S'fio'
p608
a(dp609
g71
S'/usr/share/arduino/hardware/arduino'
p610
sS'bootloader'
p611
(dp612
S'extended_fuses'
p613
S'0x05'
p614
sS'high_fuses'
p615
S'0xDA'
p616
sS'low_fuses'
p617
S'0xFF'
p618
sS'lock_bits'
p619
S'0x0F'
p620
sS'file'
p621
S'ATmegaBOOT_168_atmega328_pro_8MHz.hex'
p622
sS'path'
p623
S'arduino:atmega'
p624
sS'unlock_bits'
p625
S'0x3F'
p626
ssS'upload'
p627
(dp628
S'protocol'
p629
S'arduino'
p630
sS'maximum_size'
p631
S'30720'
p632
sS'speed'
p633
S'57600'
p634
ssS'name'
p635
S'Arduino Fio'
p636
sS'build'
p637
(dp638
S'core'
p639
S'arduino'
p640
sS'mcu'
p641
S'atmega328p'
p642
sS'f_cpu'
p643
S'8000000L'
p644
sS'variant'
p645
S'eightanaloginputs'
p646
ssaa(lp647
S'bt328'
p648
a(dp649
g71
S'/usr/share/arduino/hardware/arduino'
p650
sS'bootloader'
p651
(dp652
S'extended_fuses'
p653
S'0x05'
p654
sS'high_fuses'
p655
S'0xd8'
p656
sS'low_fuses'
p657
S'0xff'
p658
sS'lock_bits'
p659
S'0x0F'
p660
sS'file'
p661
S'ATmegaBOOT_168_atmega328_bt.hex'
p662
sS'path'
p663
S'bt'
p664
sS'unlock_bits'
p665
S'0x3F'
p666
ssS'upload'
p667
(dp668
S'protocol'
p669
S'arduino'
p670
sS'maximum_size'
p671
S'28672'
p672
sS'speed'
p673
S'19200'
p674
sS'disable_flushing'
p675
S'true'
p676
ssS'name'
p677
S'Arduino BT w/ ATmega328'
p678
sS'build'
p679
(dp680
S'core'
p681
S'arduino'
p682
sS'mcu'
p683
S'atmega328p'
p684
sS'f_cpu'
p685
S'16000000L'
p686
sS'variant'
p687
S'eightanaloginputs'
p688
ssaa(lp689
S'bt'
p690
a(dp691
g71
S'/usr/share/arduino/hardware/arduino'
p692
sS'bootloader'
p693
(dp694
S'extended_fuses'
p695
S'0x00'
p696
sS'high_fuses'
p697
S'0xdd'
p698
sS'low_fuses'
p699
S'0xff'
p700
sS'lock_bits'
p701
S'0x0F'
p702
sS'file'
p703
S'ATmegaBOOT_168.hex'
p704
sS'path'
p705
S'bt'
p706
sS'unlock_bits'
p707
S'0x3F'
p708
ssS'upload'
p709
(dp710
S'protocol'
p711
S'arduino'
p712
sS'maximum_size'
p713
S'14336'
p714
sS'speed'
p715
S'19200'
p716
sS'disable_flushing'
p717
S'true'
p718
ssS'name'
p719
S'Arduino BT w/ ATmega168'
p720
sS'build'
p721
(dp722
S'core'
p723
S'arduino'
p724
sS'mcu'
p725
S'atmega168'
p726
sS'f_cpu'
p727
S'16000000L'
p728
sS'variant'
p729
S'eightanaloginputs'
p730
ssaa(lp731
S'LilyPadUSB'
p732
a(dp733
g71
S'/usr/share/arduino/hardware/arduino'
p734
sS'bootloader'
p735
(dp736
S'extended_fuses'
p737
S'0xce'
p738
sS'high_fuses'
p739
S'0xd8'
p740
sS'low_fuses'
p741
S'0xff'
p742
sS'lock_bits'
p743
S'0x2F'
p744
sS'file'
p745
S'Caterina-LilyPadUSB.hex'
p746
sS'path'
p747
S'caterina-LilyPadUSB'
p748
sS'unlock_bits'
p749
S'0x3F'
p750
ssS'upload'
p751
(dp752
S'protocol'
p753
S'avr109'
p754
sS'maximum_size'
p755
S'28672'
p756
sS'speed'
p757
S'57600'
p758
sS'disable_flushing'
p759
S'true'
p760
ssS'name'
p761
S'LilyPad Arduino USB'
p762
sS'build'
p763
(dp764
S'core'
p765
S'arduino'
p766
sS'f_cpu'
p767
S'8000000L'
p768
sS'vid'
p769
S'0x1B4F'
p770
sS'pid'
p771
S'0x9208'
p772
sS'variant'
p773
S'leonardo'
p774
sS'mcu'
p775
S'atmega32u4'
p776
ssaa(lp777
S'lilypad328'
p778
a(dp779
g71
S'/usr/share/arduino/hardware/arduino'
p780
sS'bootloader'
p781
(dp782
S'extended_fuses'
p783
S'0x05'
p784
sS'high_fuses'
p785
S'0xDA'
p786
sS'low_fuses'
p787
S'0xFF'
p788
sS'lock_bits'
p789
S'0x0F'
p790
sS'file'
p791
S'ATmegaBOOT_168_atmega328_pro_8MHz.hex'
p792
sS'path'
p793
S'atmega'
p794
sS'unlock_bits'
p795
S'0x3F'
p796
ssS'upload'
p797
(dp798
S'protocol'
p799
S'arduino'
p800
sS'maximum_size'
p801
S'30720'
p802
sS'speed'
p803
S'57600'
p804
ssS'name'
p805
S'LilyPad Arduino w/ ATmega328'
p806
sS'build'
p807
(dp808
S'core'
p809
S'arduino'
p810
sS'mcu'
p811
S'atmega328p'
p812
sS'f_cpu'
p813
S'8000000L'
p814
sS'variant'
p815
S'standard'
p816
ssaa(lp817
S'lilypad'
p818
a(dp819
g71
S'/usr/share/arduino/hardware/arduino'
p820
sS'bootloader'
p821
(dp822
S'extended_fuses'
p823
S'0x00'
p824
sS'high_fuses'
p825
S'0xdd'
p826
sS'low_fuses'
p827
S'0xe2'
p828
sS'lock_bits'
p829
S'0x0F'
p830
sS'file'
p831
S'LilyPadBOOT_168.hex'
p832
sS'path'
p833
S'lilypad'
p834
sS'unlock_bits'
p835
S'0x3F'
p836
ssS'upload'
p837
(dp838
S'protocol'
p839
S'arduino'
p840
sS'maximum_size'
p841
S'14336'
p842
sS'speed'
p843
S'19200'
p844
ssS'name'
p845
S'LilyPad Arduino w/ ATmega168'
p846
sS'build'
p847
(dp848
S'core'
p849
S'arduino'
p850
sS'mcu'
p851
S'atmega168'
p852
sS'f_cpu'
p853
S'8000000L'
p854
sS'variant'
p855
S'standard'
p856
ssaa(lp857
S'pro5v328'
p858
a(dp859
g71
S'/usr/share/arduino/hardware/arduino'
p860
sS'bootloader'
p861
(dp862
S'extended_fuses'
p863
S'0x05'
p864
sS'high_fuses'
p865
S'0xDA'
p866
sS'low_fuses'
p867
S'0xFF'
p868
sS'lock_bits'
p869
S'0x0F'
p870
sS'file'
p871
S'ATmegaBOOT_168_atmega328.hex'
p872
sS'path'
p873
S'atmega'
p874
sS'unlock_bits'
p875
S'0x3F'
p876
ssS'upload'
p877
(dp878
S'protocol'
p879
S'arduino'
p880
sS'maximum_size'
p881
S'30720'
p882
sS'speed'
p883
S'57600'
p884
ssS'name'
p885
S'Arduino Pro or Pro Mini (5V, 16 MHz) w/ ATmega328'
p886
sS'build'
p887
(dp888
S'core'
p889
S'arduino'
p890
sS'mcu'
p891
S'atmega328p'
p892
sS'f_cpu'
p893
S'16000000L'
p894
sS'variant'
p895
S'standard'
p896
ssaa(lp897
S'pro5v'
p898
a(dp899
g71
S'/usr/share/arduino/hardware/arduino'
p900
sS'bootloader'
p901
(dp902
S'extended_fuses'
p903
S'0x00'
p904
sS'high_fuses'
p905
S'0xdd'
p906
sS'low_fuses'
p907
S'0xff'
p908
sS'lock_bits'
p909
S'0x0F'
p910
sS'file'
p911
S'ATmegaBOOT_168_diecimila.hex'
p912
sS'path'
p913
S'atmega'
p914
sS'unlock_bits'
p915
S'0x3F'
p916
ssS'upload'
p917
(dp918
S'protocol'
p919
S'arduino'
p920
sS'maximum_size'
p921
S'14336'
p922
sS'speed'
p923
S'19200'
p924
ssS'name'
p925
S'Arduino Pro or Pro Mini (5V, 16 MHz) w/ ATmega168'
p926
sS'build'
p927
(dp928
S'core'
p929
S'arduino'
p930
sS'mcu'
p931
S'atmega168'
p932
sS'f_cpu'
p933
S'16000000L'
p934
sS'variant'
p935
S'standard'
p936
ssaa(lp937
S'pro328'
p938
a(dp939
g71
S'/usr/share/arduino/hardware/arduino'
p940
sS'bootloader'
p941
(dp942
S'extended_fuses'
p943
S'0x05'
p944
sS'high_fuses'
p945
S'0xDA'
p946
sS'low_fuses'
p947
S'0xFF'
p948
sS'lock_bits'
p949
S'0x0F'
p950
sS'file'
p951
S'ATmegaBOOT_168_atmega328_pro_8MHz.hex'
p952
sS'path'
p953
S'atmega'
p954
sS'unlock_bits'
p955
S'0x3F'
p956
ssS'upload'
p957
(dp958
S'protocol'
p959
S'arduino'
p960
sS'maximum_size'
p961
S'30720'
p962
sS'speed'
p963
S'57600'
p964
ssS'name'
p965
S'Arduino Pro or Pro Mini (3.3V, 8 MHz) w/ ATmega328'
p966
sS'build'
p967
(dp968
S'core'
p969
S'arduino'
p970
sS'mcu'
p971
S'atmega328p'
p972
sS'f_cpu'
p973
S'8000000L'
p974
sS'variant'
p975
S'standard'
p976
ssaa(lp977
S'pro'
p978
a(dp979
g71
S'/usr/share/arduino/hardware/arduino'
p980
sS'bootloader'
p981
(dp982
S'extended_fuses'
p983
S'0x00'
p984
sS'high_fuses'
p985
S'0xdd'
p986
sS'low_fuses'
p987
S'0xc6'
p988
sS'lock_bits'
p989
S'0x0F'
p990
sS'file'
p991
S'ATmegaBOOT_168_pro_8MHz.hex'
p992
sS'path'
p993
S'atmega'
p994
sS'unlock_bits'
p995
S'0x3F'
p996
ssS'upload'
p997
(dp998
S'protocol'
p999
S'arduino'
p1000
sS'maximum_size'
p1001
S'14336'
p1002
sS'speed'
p1003
S'19200'
p1004
ssS'name'
p1005
S'Arduino Pro or Pro Mini (3.3V, 8 MHz) w/ ATmega168'
p1006
sS'build'
p1007
(dp1008
S'core'
p1009
S'arduino'
p1010
sS'mcu'
p1011
S'atmega168'
p1012
sS'f_cpu'
p1013
S'8000000L'
p1014
sS'variant'
p1015
S'standard'
p1016
ssaa(lp1017
S'atmega168'
p1018
a(dp1019
g71
S'/usr/share/arduino/hardware/arduino'
p1020
sS'bootloader'
p1021
(dp1022
S'extended_fuses'
p1023
S'0x00'
p1024
sS'high_fuses'
p1025
S'0xdd'
p1026
sS'low_fuses'
p1027
S'0xff'
p1028
sS'lock_bits'
p1029
S'0x0F'
p1030
sS'file'
p1031
S'ATmegaBOOT_168_ng.hex'
p1032
sS'path'
p1033
S'atmega'
p1034
sS'unlock_bits'
p1035
S'0x3F'
p1036
ssS'upload'
p1037
(dp1038
S'protocol'
p1039
S'arduino'
p1040
sS'maximum_size'
p1041
S'14336'
p1042
sS'speed'
p1043
S'19200'
p1044
ssS'name'
p1045
S'Arduino NG or older w/ ATmega168'
p1046
sS'build'
p1047
(dp1048
S'core'
p1049
S'arduino'
p1050
sS'mcu'
p1051
S'atmega168'
p1052
sS'f_cpu'
p1053
S'16000000L'
p1054
sS'variant'
p1055
S'standard'
p1056
ssaa(lp1057
S'atmega8'
p1058
a(dp1059
g71
S'/usr/share/arduino/hardware/arduino'
p1060
sS'bootloader'
p1061
(dp1062
S'high_fuses'
p1063
S'0xca'
p1064
sS'low_fuses'
p1065
S'0xdf'
p1066
sS'lock_bits'
p1067
S'0x0F'
p1068
sS'file'
p1069
S'ATmegaBOOT-prod-firmware-2009-11-07.hex'
p1070
sS'path'
p1071
S'atmega8'
p1072
sS'unlock_bits'
p1073
S'0x3F'
p1074
ssS'upload'
p1075
(dp1076
S'protocol'
p1077
S'arduino'
p1078
sS'maximum_size'
p1079
S'7168'
p1080
sS'speed'
p1081
S'19200'
p1082
ssS'name'
p1083
S'Arduino NG or older w/ ATmega8'
p1084
sS'build'
p1085
(dp1086
S'core'
p1087
S'arduino'
p1088
sS'mcu'
p1089
S'atmega8'
p1090
sS'f_cpu'
p1091
S'16000000L'
p1092
sS'variant'
p1093
S'standard'
p1094
ssaa(lp1095
S'robotControl'
p1096
a(dp1097
g71
S'/usr/share/arduino/hardware/arduino'
p1098
sS'bootloader'
p1099
(dp1100
S'extended_fuses'
p1101
S'0xcb'
p1102
sS'high_fuses'
p1103
S'0xd8'
p1104
sS'low_fuses'
p1105
S'0xff'
p1106
sS'lock_bits'
p1107
S'0x2F'
p1108
sS'file'
p1109
S'Caterina-Robot-Control.hex'
p1110
sS'path'
p1111
S'caterina-Arduino_Robot'
p1112
sS'unlock_bits'
p1113
S'0x3F'
p1114
ssS'upload'
p1115
(dp1116
S'protocol'
p1117
S'avr109'
p1118
sS'maximum_size'
p1119
S'28672'
p1120
sS'speed'
p1121
S'57600'
p1122
sS'disable_flushing'
p1123
S'true'
p1124
ssS'name'
p1125
S'Arduino Robot Control'
p1126
sS'build'
p1127
(dp1128
S'core'
p1129
S'robot'
p1130
sS'f_cpu'
p1131
S'16000000L'
p1132
sS'vid'
p1133
S'0x2341'
p1134
sS'pid'
p1135
S'0x8038'
p1136
sS'variant'
p1137
S'robot_control'
p1138
sS'mcu'
p1139
S'atmega32u4'
p1140
ssaa(lp1141
S'robotMotor'
p1142
a(dp1143
g71
S'/usr/share/arduino/hardware/arduino'
p1144
sS'bootloader'
p1145
(dp1146
S'extended_fuses'
p1147
S'0xcb'
p1148
sS'high_fuses'
p1149
S'0xd8'
p1150
sS'low_fuses'
p1151
S'0xff'
p1152
sS'lock_bits'
p1153
S'0x2F'
p1154
sS'file'
p1155
S'Caterina-Robot-Motor.hex'
p1156
sS'path'
p1157
S'caterina-Arduino_Robot'
p1158
sS'unlock_bits'
p1159
S'0x3F'
p1160
ssS'upload'
p1161
(dp1162
S'protocol'
p1163
S'avr109'
p1164
sS'maximum_size'
p1165
S'28672'
p1166
sS'speed'
p1167
S'57600'
p1168
sS'disable_flushing'
p1169
S'true'
p1170
ssS'name'
p1171
S'Arduino Robot Motor'
p1172
sS'build'
p1173
(dp1174
S'core'
p1175
S'robot'
p1176
sS'f_cpu'
p1177
S'16000000L'
p1178
sS'vid'
p1179
S'0x2341'
p1180
sS'pid'
p1181
S'0x8039'
p1182
sS'variant'
p1183
S'robot_motor'
p1184
sS'mcu'
p1185
S'atmega32u4'
p1186
ssaatp1187
Rp1188
(dp1189
S'default'
p1190
S'uno'
p1191
sbtp1192
a(S'used_libs'
p1193
(lp1194
S'lib/Roomba'
p1195
aS'/usr/share/arduino/libraries/Servo'
p1196
aS'lib/Motor'
p1197
aS'/usr/share/arduino/hardware/arduino/cores/arduino'
p1198
atp1199
a(S'make'
p1200
S'/usr/bin/make'
p1201
tp1202
a(S'build_dir'
p1203
S'.build/mega2560'
p1204
tp1205
a(S'cc'
p1206
S'/usr/share/arduino/hardware/tools/avr/bin/avr-gcc'
p1207
tp1208
a(S'cflags'
p1209
g2
(g3
g4
(lp1210
tp1211
Rp1212
tp1213
a(S'cxxflags'
p1214
g2
(g3
g4
(lp1215
S'-fno-exceptions'
p1216
atp1217
Rp1218
tp1219
a(S'arduino_variants_dir'
p1220
S'/usr/share/arduino/hardware/arduino/variants'
p1221
tp1222
a(S'serial'
p1223
S'/usr/bin/picocom'
p1224
tp1225
a(S'stty'
p1226
S'/bin/stty'
p1227
tp1228
a(S'version.txt'
p1229
S'/usr/share/arduino/lib/version.txt'
p1230
tp1231
a(S'arduino_core_dir'
p1232
g1198
tp1233
a(S'boards.txt'
p1234
(lp1235
S'/usr/share/arduino/hardware/arduino/boards.txt'
p1236
atp1237
a(S'avrdude.conf'
p1238
S'/usr/share/arduino/hardware/tools/avrdude.conf'
p1239
tp1240
a(S'deps'
p1241
g2
(g3
g4
(lp1242
S'.build/mega2560/src/dependencies.d'
p1243
aS'.build/mega2560/Roomba/dependencies.d'
p1244
aS'.build/mega2560/arduino/dependencies.d'
p1245
aS'.build/mega2560/Servo/dependencies.d'
p1246
aS'.build/mega2560/Motor/dependencies.d'
p1247
atp1248
Rp1249
tp1250
a.