(lp0
(S'cppflags'
p1
ccopy_reg
_reconstructor
p2
(cino.utils
SpaceList
p3
c__builtin__
list
p4
(lp5
S'-mmcu=atmega2560'
p6
aS'-DF_CPU=16000000L'
p7
aS'-DARDUINO=105'
p8
aS'-I/usr/share/arduino/hardware/arduino/cores/arduino'
p9
aS'-ffunction-sections'
p10
aS'-fdata-sections'
p11
aS'-g'
p12
aS'-Os'
p13
aS'-w'
p14
aS'-I/usr/share/arduino/hardware/arduino/variants/mega'
p15
aS'-Ilib/Roomba'
p16
aS'-Ilib/Roomba/doc'
p17
aS'-I/usr/share/arduino/libraries/Servo'
p18
aS'-Ilib/Motor'
p19
aS'-I/usr/share/arduino/hardware/arduino/cores/arduino'
p20
aS'-I/usr/share/arduino/hardware/arduino/cores/arduino/avr-libc'
p21
atp22
Rp23
tp24
a(S'cxx'
p25
S'/usr/share/arduino/hardware/tools/avr/bin/avr-g++'
p26
tp27
a(S'arduino_libraries_dir'
p28
S'/usr/share/arduino/libraries'
p29
tp30
a(S'avrdude'
p31
S'/usr/share/arduino/hardware/tools/avrdude'
p32
tp33
a(S'ar'
p34
S'/usr/share/arduino/hardware/tools/avr/bin/avr-ar'
p35
tp36
a(S'names'
p37
(dp38
S'cpp'
p39
S'%s.cpp'
p40
sS'obj'
p41
S'%s.o'
p42
sS'deps'
p43
S'%s.d'
p44
sS'lib'
p45
S'lib%s.a'
p46
stp47
a(S'ldflags'
p48
g2
(g3
g4
(lp49
g6
aS'-Wl,-Os'
p50
aS'-Wl,--gc-sections'
p51
atp52
Rp53
tp54
a(S'arduino_lib_version'
p55
g2
(cino.environment
Version
p56
c__builtin__
tuple
p57
(I1
I0
I5
tp58
tp59
Rp60
tp61
a(S'objcopy'
p62
S'/usr/share/arduino/hardware/tools/avr/bin/avr-objcopy'
p63
tp64
a(S'board_models'
p65
cino.environment
BoardModels
p66
((lp67
(lp68
S'uno'
p69
a(dp70
S'_coredir'
p71
S'/usr/share/arduino/hardware/arduino'
p72
sS'bootloader'
p73
(dp74
S'extended_fuses'
p75
S'0x05'
p76
sS'high_fuses'
p77
S'0xde'
p78
sS'low_fuses'
p79
S'0xff'
p80
sS'lock_bits'
p81
S'0x0F'
p82
sS'file'
p83
S'optiboot_atmega328.hex'
p84
sS'path'
p85
S'optiboot'
p86
sS'unlock_bits'
p87
S'0x3F'
p88
ssS'build'
p89
(dp90
S'core'
p91
S'arduino'
p92
sS'mcu'
p93
S'atmega328p'
p94
sS'f_cpu'
p95
S'16000000L'
p96
sS'variant'
p97
S'standard'
p98
ssS'name'
p99
S'Arduino Uno'
p100
sS'upload'
p101
(dp102
S'protocol'
p103
S'arduino'
p104
sS'maximum_size'
p105
S'32256'
p106
sS'speed'
p107
S'115200'
p108
ssaa(lp109
S'atmega328'
p110
a(dp111
g71
S'/usr/share/arduino/hardware/arduino'
p112
sS'bootloader'
p113
(dp114
S'extended_fuses'
p115
S'0x05'
p116
sS'high_fuses'
p117
S'0xDA'
p118
sS'low_fuses'
p119
S'0xFF'
p120
sS'lock_bits'
p121
S'0x0F'
p122
sS'file'
p123
S'ATmegaBOOT_168_atmega328.hex'
p124
sS'path'
p125
S'atmega'
p126
sS'unlock_bits'
p127
S'0x3F'
p128
ssS'build'
p129
(dp130
S'core'
p131
S'arduino'
p132
sS'mcu'
p133
S'atmega328p'
p134
sS'f_cpu'
p135
S'16000000L'
p136
sS'variant'
p137
S'standard'
p138
ssS'name'
p139
S'Arduino Duemilanove w/ ATmega328'
p140
sS'upload'
p141
(dp142
S'protocol'
p143
S'arduino'
p144
sS'maximum_size'
p145
S'30720'
p146
sS'speed'
p147
S'57600'
p148
ssaa(lp149
S'diecimila'
p150
a(dp151
g71
S'/usr/share/arduino/hardware/arduino'
p152
sS'bootloader'
p153
(dp154
S'extended_fuses'
p155
S'0x00'
p156
sS'high_fuses'
p157
S'0xdd'
p158
sS'low_fuses'
p159
S'0xff'
p160
sS'lock_bits'
p161
S'0x0F'
p162
sS'file'
p163
S'ATmegaBOOT_168_diecimila.hex'
p164
sS'path'
p165
S'atmega'
p166
sS'unlock_bits'
p167
S'0x3F'
p168
ssS'build'
p169
(dp170
S'core'
p171
S'arduino'
p172
sS'mcu'
p173
S'atmega168'
p174
sS'f_cpu'
p175
S'16000000L'
p176
sS'variant'
p177
S'standard'
p178
ssS'name'
p179
S'Arduino Diecimila or Duemilanove w/ ATmega168'
p180
sS'upload'
p181
(dp182
S'protocol'
p183
S'arduino'
p184
sS'maximum_size'
p185
S'14336'
p186
sS'speed'
p187
S'19200'
p188
ssaa(lp189
S'nano328'
p190
a(dp191
g71
S'/usr/share/arduino/hardware/arduino'
p192
sS'bootloader'
p193
(dp194
S'extended_fuses'
p195
S'0x05'
p196
sS'high_fuses'
p197
S'0xDA'
p198
sS'low_fuses'
p199
S'0xFF'
p200
sS'lock_bits'
p201
S'0x0F'
p202
sS'file'
p203
S'ATmegaBOOT_168_atmega328.hex'
p204
sS'path'
p205
S'atmega'
p206
sS'unlock_bits'
p207
S'0x3F'
p208
ssS'build'
p209
(dp210
S'core'
p211
S'arduino'
p212
sS'mcu'
p213
S'atmega328p'
p214
sS'f_cpu'
p215
S'16000000L'
p216
sS'variant'
p217
S'eightanaloginputs'
p218
ssS'name'
p219
S'Arduino Nano w/ ATmega328'
p220
sS'upload'
p221
(dp222
S'protocol'
p223
S'arduino'
p224
sS'maximum_size'
p225
S'30720'
p226
sS'speed'
p227
S'57600'
p228
ssaa(lp229
S'nano'
p230
a(dp231
g71
S'/usr/share/arduino/hardware/arduino'
p232
sS'bootloader'
p233
(dp234
S'extended_fuses'
p235
S'0x00'
p236
sS'high_fuses'
p237
S'0xdd'
p238
sS'low_fuses'
p239
S'0xff'
p240
sS'lock_bits'
p241
S'0x0F'
p242
sS'file'
p243
S'ATmegaBOOT_168_diecimila.hex'
p244
sS'path'
p245
S'atmega'
p246
sS'unlock_bits'
p247
S'0x3F'
p248
ssS'build'
p249
(dp250
S'core'
p251
S'arduino'
p252
sS'mcu'
p253
S'atmega168'
p254
sS'f_cpu'
p255
S'16000000L'
p256
sS'variant'
p257
S'eightanaloginputs'
p258
ssS'name'
p259
S'Arduino Nano w/ ATmega168'
p260
sS'upload'
p261
(dp262
S'protocol'
p263
S'arduino'
p264
sS'maximum_size'
p265
S'14336'
p266
sS'speed'
p267
S'19200'
p268
ssaa(lp269
S'mega2560'
p270
a(dp271
g71
S'/usr/share/arduino/hardware/arduino'
p272
sS'bootloader'
p273
(dp274
S'extended_fuses'
p275
S'0xFD'
p276
sS'high_fuses'
p277
S'0xD8'
p278
sS'low_fuses'
p279
S'0xFF'
p280
sS'lock_bits'
p281
S'0x0F'
p282
sS'file'
p283
S'stk500boot_v2_mega2560.hex'
p284
sS'path'
p285
S'stk500v2'
p286
sS'unlock_bits'
p287
S'0x3F'
p288
ssS'build'
p289
(dp290
S'core'
p291
S'arduino'
p292
sS'mcu'
p293
S'atmega2560'
p294
sS'f_cpu'
p295
S'16000000L'
p296
sS'variant'
p297
S'mega'
p298
ssS'name'
p299
S'Arduino Mega 2560 or Mega ADK'
p300
sS'upload'
p301
(dp302
S'protocol'
p303
S'wiring'
p304
sS'maximum_size'
p305
S'258048'
p306
sS'speed'
p307
S'115200'
p308
ssaa(lp309
S'mega'
p310
a(dp311
g71
S'/usr/share/arduino/hardware/arduino'
p312
sS'bootloader'
p313
(dp314
S'extended_fuses'
p315
S'0xF5'
p316
sS'high_fuses'
p317
S'0xDA'
p318
sS'low_fuses'
p319
S'0xFF'
p320
sS'lock_bits'
p321
S'0x0F'
p322
sS'file'
p323
S'ATmegaBOOT_168_atmega1280.hex'
p324
sS'path'
p325
S'atmega'
p326
sS'unlock_bits'
p327
S'0x3F'
p328
ssS'build'
p329
(dp330
S'core'
p331
S'arduino'
p332
sS'mcu'
p333
S'atmega1280'
p334
sS'f_cpu'
p335
S'16000000L'
p336
sS'variant'
p337
S'mega'
p338
ssS'name'
p339
S'Arduino Mega (ATmega1280)'
p340
sS'upload'
p341
(dp342
S'protocol'
p343
S'arduino'
p344
sS'maximum_size'
p345
S'126976'
p346
sS'speed'
p347
S'57600'
p348
ssaa(lp349
S'leonardo'
p350
a(dp351
g71
S'/usr/share/arduino/hardware/arduino'
p352
sS'bootloader'
p353
(dp354
S'extended_fuses'
p355
S'0xcb'
p356
sS'high_fuses'
p357
S'0xd8'
p358
sS'low_fuses'
p359
S'0xff'
p360
sS'lock_bits'
p361
S'0x2F'
p362
sS'file'
p363
S'Caterina-Leonardo.hex'
p364
sS'path'
p365
S'caterina'
p366
sS'unlock_bits'
p367
S'0x3F'
p368
ssS'build'
p369
(dp370
S'core'
p371
S'arduino'
p372
sS'f_cpu'
p373
S'16000000L'
p374
sS'vid'
p375
S'0x2341'
p376
sS'pid'
p377
S'0x8036'
p378
sS'variant'
p379
S'leonardo'
p380
sS'mcu'
p381
S'atmega32u4'
p382
ssS'name'
p383
S'Arduino Leonardo'
p384
sS'upload'
p385
(dp386
S'protocol'
p387
S'avr109'
p388
sS'maximum_size'
p389
S'28672'
p390
sS'speed'
p391
S'57600'
p392
sS'disable_flushing'
p393
S'true'
p394
ssaa(lp395
S'esplora'
p396
a(dp397
g71
S'/usr/share/arduino/hardware/arduino'
p398
sS'bootloader'
p399
(dp400
S'extended_fuses'
p401
S'0xcb'
p402
sS'high_fuses'
p403
S'0xd8'
p404
sS'low_fuses'
p405
S'0xff'
p406
sS'lock_bits'
p407
S'0x2F'
p408
sS'file'
p409
S'Caterina-Esplora.hex'
p410
sS'path'
p411
S'caterina'
p412
sS'unlock_bits'
p413
S'0x3F'
p414
ssS'build'
p415
(dp416
S'core'
p417
S'arduino'
p418
sS'f_cpu'
p419
S'16000000L'
p420
sS'vid'
p421
S'0x2341'
p422
sS'pid'
p423
S'0x803C'
p424
sS'variant'
p425
S'leonardo'
p426
sS'mcu'
p427
S'atmega32u4'
p428
ssS'name'
p429
S'Arduino Esplora'
p430
sS'upload'
p431
(dp432
S'protocol'
p433
S'avr109'
p434
sS'maximum_size'
p435
S'28672'
p436
sS'speed'
p437
S'57600'
p438
sS'disable_flushing'
p439
S'true'
p440
ssaa(lp441
S'micro'
p442
a(dp443
g71
S'/usr/share/arduino/hardware/arduino'
p444
sS'bootloader'
p445
(dp446
S'extended_fuses'
p447
S'0xcb'
p448
sS'high_fuses'
p449
S'0xd8'
p450
sS'low_fuses'
p451
S'0xff'
p452
sS'lock_bits'
p453
S'0x2F'
p454
sS'file'
p455
S'Caterina-Micro.hex'
p456
sS'path'
p457
S'caterina'
p458
sS'unlock_bits'
p459
S'0x3F'
p460
ssS'build'
p461
(dp462
S'core'
p463
S'arduino'
p464
sS'f_cpu'
p465
S'16000000L'
p466
sS'vid'
p467
S'0x2341'
p468
sS'pid'
p469
S'0x8037'
p470
sS'variant'
p471
S'micro'
p472
sS'mcu'
p473
S'atmega32u4'
p474
ssS'name'
p475
S'Arduino Micro'
p476
sS'upload'
p477
(dp478
S'protocol'
p479
S'avr109'
p480
sS'maximum_size'
p481
S'28672'
p482
sS'speed'
p483
S'57600'
p484
sS'disable_flushing'
p485
S'true'
p486
ssaa(lp487
S'mini328'
p488
a(dp489
g71
S'/usr/share/arduino/hardware/arduino'
p490
sS'bootloader'
p491
(dp492
S'extended_fuses'
p493
S'0x05'
p494
sS'high_fuses'
p495
S'0xd8'
p496
sS'low_fuses'
p497
S'0xff'
p498
sS'lock_bits'
p499
S'0x0F'
p500
sS'file'
p501
S'optiboot_atmega328-Mini.hex'
p502
sS'path'
p503
S'optiboot'
p504
sS'unlock_bits'
p505
S'0x3F'
p506
ssS'build'
p507
(dp508
S'core'
p509
S'arduino'
p510
sS'mcu'
p511
S'atmega328p'
p512
sS'f_cpu'
p513
S'16000000L'
p514
sS'variant'
p515
S'eightanaloginputs'
p516
ssS'name'
p517
S'Arduino Mini w/ ATmega328'
p518
sS'upload'
p519
(dp520
S'protocol'
p521
S'arduino'
p522
sS'maximum_size'
p523
S'28672'
p524
sS'speed'
p525
S'115200'
p526
ssaa(lp527
S'mini'
p528
a(dp529
g71
S'/usr/share/arduino/hardware/arduino'
p530
sS'bootloader'
p531
(dp532
S'extended_fuses'
p533
S'0x00'
p534
sS'high_fuses'
p535
S'0xdd'
p536
sS'low_fuses'
p537
S'0xff'
p538
sS'lock_bits'
p539
S'0x0F'
p540
sS'file'
p541
S'ATmegaBOOT_168_ng.hex'
p542
sS'path'
p543
S'atmega'
p544
sS'unlock_bits'
p545
S'0x3F'
p546
ssS'build'
p547
(dp548
S'core'
p549
S'arduino'
p550
sS'mcu'
p551
S'atmega168'
p552
sS'f_cpu'
p553
S'16000000L'
p554
sS'variant'
p555
S'eightanaloginputs'
p556
ssS'name'
p557
S'Arduino Mini w/ ATmega168'
p558
sS'upload'
p559
(dp560
S'protocol'
p561
S'arduino'
p562
sS'maximum_size'
p563
S'14336'
p564
sS'speed'
p565
S'19200'
p566
ssaa(lp567
S'ethernet'
p568
a(dp569
g71
S'/usr/share/arduino/hardware/arduino'
p570
sS'bootloader'
p571
(dp572
S'extended_fuses'
p573
S'0x05'
p574
sS'high_fuses'
p575
S'0xde'
p576
sS'low_fuses'
p577
S'0xff'
p578
sS'lock_bits'
p579
S'0x0F'
p580
sS'file'
p581
S'optiboot_atmega328.hex'
p582
sS'path'
p583
S'optiboot'
p584
sS'unlock_bits'
p585
S'0x3F'
p586
ssS'build'
p587
(dp588
S'variant'
p589
S'standard'
p590
sS'mcu'
p591
S'atmega328p'
p592
sS'f_cpu'
p593
S'16000000L'
p594
sS'core'
p595
S'arduino'
p596
ssS'name'
p597
S'Arduino Ethernet'
p598
sS'upload'
p599
(dp600
S'protocol'
p601
S'arduino'
p602
sS'maximum_size'
p603
S'32256'
p604
sS'speed'
p605
S'115200'
p606
ssaa(lp607
S'fio'
p608
a(dp609
g71
S'/usr/share/arduino/hardware/arduino'
p610
sS'bootloader'
p611
(dp612
S'extended_fuses'
p613
S'0x05'
p614
sS'high_fuses'
p615
S'0xDA'
p616
sS'low_fuses'
p617
S'0xFF'
p618
sS'lock_bits'
p619
S'0x0F'
p620
sS'file'
p621
S'ATmegaBOOT_168_atmega328_pro_8MHz.hex'
p622
sS'path'
p623
S'arduino:atmega'
p624
sS'unlock_bits'
p625
S'0x3F'
p626
ssS'build'
p627
(dp628
S'core'
p629
S'arduino'
p630
sS'mcu'
p631
S'atmega328p'
p632
sS'f_cpu'
p633
S'8000000L'
p634
sS'variant'
p635
S'eightanaloginputs'
p636
ssS'name'
p637
S'Arduino Fio'
p638
sS'upload'
p639
(dp640
S'protocol'
p641
S'arduino'
p642
sS'maximum_size'
p643
S'30720'
p644
sS'speed'
p645
S'57600'
p646
ssaa(lp647
S'bt328'
p648
a(dp649
g71
S'/usr/share/arduino/hardware/arduino'
p650
sS'bootloader'
p651
(dp652
S'extended_fuses'
p653
S'0x05'
p654
sS'high_fuses'
p655
S'0xd8'
p656
sS'low_fuses'
p657
S'0xff'
p658
sS'lock_bits'
p659
S'0x0F'
p660
sS'file'
p661
S'ATmegaBOOT_168_atmega328_bt.hex'
p662
sS'path'
p663
S'bt'
p664
sS'unlock_bits'
p665
S'0x3F'
p666
ssS'build'
p667
(dp668
S'core'
p669
S'arduino'
p670
sS'mcu'
p671
S'atmega328p'
p672
sS'f_cpu'
p673
S'16000000L'
p674
sS'variant'
p675
S'eightanaloginputs'
p676
ssS'name'
p677
S'Arduino BT w/ ATmega328'
p678
sS'upload'
p679
(dp680
S'protocol'
p681
S'arduino'
p682
sS'maximum_size'
p683
S'28672'
p684
sS'speed'
p685
S'19200'
p686
sS'disable_flushing'
p687
S'true'
p688
ssaa(lp689
S'bt'
p690
a(dp691
g71
S'/usr/share/arduino/hardware/arduino'
p692
sS'bootloader'
p693
(dp694
S'extended_fuses'
p695
S'0x00'
p696
sS'high_fuses'
p697
S'0xdd'
p698
sS'low_fuses'
p699
S'0xff'
p700
sS'lock_bits'
p701
S'0x0F'
p702
sS'file'
p703
S'ATmegaBOOT_168.hex'
p704
sS'path'
p705
S'bt'
p706
sS'unlock_bits'
p707
S'0x3F'
p708
ssS'build'
p709
(dp710
S'core'
p711
S'arduino'
p712
sS'mcu'
p713
S'atmega168'
p714
sS'f_cpu'
p715
S'16000000L'
p716
sS'variant'
p717
S'eightanaloginputs'
p718
ssS'name'
p719
S'Arduino BT w/ ATmega168'
p720
sS'upload'
p721
(dp722
S'protocol'
p723
S'arduino'
p724
sS'maximum_size'
p725
S'14336'
p726
sS'speed'
p727
S'19200'
p728
sS'disable_flushing'
p729
S'true'
p730
ssaa(lp731
S'LilyPadUSB'
p732
a(dp733
g71
S'/usr/share/arduino/hardware/arduino'
p734
sS'bootloader'
p735
(dp736
S'extended_fuses'
p737
S'0xce'
p738
sS'high_fuses'
p739
S'0xd8'
p740
sS'low_fuses'
p741
S'0xff'
p742
sS'lock_bits'
p743
S'0x2F'
p744
sS'file'
p745
S'Caterina-LilyPadUSB.hex'
p746
sS'path'
p747
S'caterina-LilyPadUSB'
p748
sS'unlock_bits'
p749
S'0x3F'
p750
ssS'build'
p751
(dp752
S'core'
p753
S'arduino'
p754
sS'f_cpu'
p755
S'8000000L'
p756
sS'vid'
p757
S'0x1B4F'
p758
sS'pid'
p759
S'0x9208'
p760
sS'variant'
p761
S'leonardo'
p762
sS'mcu'
p763
S'atmega32u4'
p764
ssS'name'
p765
S'LilyPad Arduino USB'
p766
sS'upload'
p767
(dp768
S'protocol'
p769
S'avr109'
p770
sS'maximum_size'
p771
S'28672'
p772
sS'speed'
p773
S'57600'
p774
sS'disable_flushing'
p775
S'true'
p776
ssaa(lp777
S'lilypad328'
p778
a(dp779
g71
S'/usr/share/arduino/hardware/arduino'
p780
sS'bootloader'
p781
(dp782
S'extended_fuses'
p783
S'0x05'
p784
sS'high_fuses'
p785
S'0xDA'
p786
sS'low_fuses'
p787
S'0xFF'
p788
sS'lock_bits'
p789
S'0x0F'
p790
sS'file'
p791
S'ATmegaBOOT_168_atmega328_pro_8MHz.hex'
p792
sS'path'
p793
S'atmega'
p794
sS'unlock_bits'
p795
S'0x3F'
p796
ssS'build'
p797
(dp798
S'core'
p799
S'arduino'
p800
sS'mcu'
p801
S'atmega328p'
p802
sS'f_cpu'
p803
S'8000000L'
p804
sS'variant'
p805
S'standard'
p806
ssS'name'
p807
S'LilyPad Arduino w/ ATmega328'
p808
sS'upload'
p809
(dp810
S'protocol'
p811
S'arduino'
p812
sS'maximum_size'
p813
S'30720'
p814
sS'speed'
p815
S'57600'
p816
ssaa(lp817
S'lilypad'
p818
a(dp819
g71
S'/usr/share/arduino/hardware/arduino'
p820
sS'bootloader'
p821
(dp822
S'extended_fuses'
p823
S'0x00'
p824
sS'high_fuses'
p825
S'0xdd'
p826
sS'low_fuses'
p827
S'0xe2'
p828
sS'lock_bits'
p829
S'0x0F'
p830
sS'file'
p831
S'LilyPadBOOT_168.hex'
p832
sS'path'
p833
S'lilypad'
p834
sS'unlock_bits'
p835
S'0x3F'
p836
ssS'build'
p837
(dp838
S'core'
p839
S'arduino'
p840
sS'mcu'
p841
S'atmega168'
p842
sS'f_cpu'
p843
S'8000000L'
p844
sS'variant'
p845
S'standard'
p846
ssS'name'
p847
S'LilyPad Arduino w/ ATmega168'
p848
sS'upload'
p849
(dp850
S'protocol'
p851
S'arduino'
p852
sS'maximum_size'
p853
S'14336'
p854
sS'speed'
p855
S'19200'
p856
ssaa(lp857
S'pro5v328'
p858
a(dp859
g71
S'/usr/share/arduino/hardware/arduino'
p860
sS'bootloader'
p861
(dp862
S'extended_fuses'
p863
S'0x05'
p864
sS'high_fuses'
p865
S'0xDA'
p866
sS'low_fuses'
p867
S'0xFF'
p868
sS'lock_bits'
p869
S'0x0F'
p870
sS'file'
p871
S'ATmegaBOOT_168_atmega328.hex'
p872
sS'path'
p873
S'atmega'
p874
sS'unlock_bits'
p875
S'0x3F'
p876
ssS'build'
p877
(dp878
S'core'
p879
S'arduino'
p880
sS'mcu'
p881
S'atmega328p'
p882
sS'f_cpu'
p883
S'16000000L'
p884
sS'variant'
p885
S'standard'
p886
ssS'name'
p887
S'Arduino Pro or Pro Mini (5V, 16 MHz) w/ ATmega328'
p888
sS'upload'
p889
(dp890
S'protocol'
p891
S'arduino'
p892
sS'maximum_size'
p893
S'30720'
p894
sS'speed'
p895
S'57600'
p896
ssaa(lp897
S'pro5v'
p898
a(dp899
g71
S'/usr/share/arduino/hardware/arduino'
p900
sS'bootloader'
p901
(dp902
S'extended_fuses'
p903
S'0x00'
p904
sS'high_fuses'
p905
S'0xdd'
p906
sS'low_fuses'
p907
S'0xff'
p908
sS'lock_bits'
p909
S'0x0F'
p910
sS'file'
p911
S'ATmegaBOOT_168_diecimila.hex'
p912
sS'path'
p913
S'atmega'
p914
sS'unlock_bits'
p915
S'0x3F'
p916
ssS'build'
p917
(dp918
S'core'
p919
S'arduino'
p920
sS'mcu'
p921
S'atmega168'
p922
sS'f_cpu'
p923
S'16000000L'
p924
sS'variant'
p925
S'standard'
p926
ssS'name'
p927
S'Arduino Pro or Pro Mini (5V, 16 MHz) w/ ATmega168'
p928
sS'upload'
p929
(dp930
S'protocol'
p931
S'arduino'
p932
sS'maximum_size'
p933
S'14336'
p934
sS'speed'
p935
S'19200'
p936
ssaa(lp937
S'pro328'
p938
a(dp939
g71
S'/usr/share/arduino/hardware/arduino'
p940
sS'bootloader'
p941
(dp942
S'extended_fuses'
p943
S'0x05'
p944
sS'high_fuses'
p945
S'0xDA'
p946
sS'low_fuses'
p947
S'0xFF'
p948
sS'lock_bits'
p949
S'0x0F'
p950
sS'file'
p951
S'ATmegaBOOT_168_atmega328_pro_8MHz.hex'
p952
sS'path'
p953
S'atmega'
p954
sS'unlock_bits'
p955
S'0x3F'
p956
ssS'build'
p957
(dp958
S'core'
p959
S'arduino'
p960
sS'mcu'
p961
S'atmega328p'
p962
sS'f_cpu'
p963
S'8000000L'
p964
sS'variant'
p965
S'standard'
p966
ssS'name'
p967
S'Arduino Pro or Pro Mini (3.3V, 8 MHz) w/ ATmega328'
p968
sS'upload'
p969
(dp970
S'protocol'
p971
S'arduino'
p972
sS'maximum_size'
p973
S'30720'
p974
sS'speed'
p975
S'57600'
p976
ssaa(lp977
S'pro'
p978
a(dp979
g71
S'/usr/share/arduino/hardware/arduino'
p980
sS'bootloader'
p981
(dp982
S'extended_fuses'
p983
S'0x00'
p984
sS'high_fuses'
p985
S'0xdd'
p986
sS'low_fuses'
p987
S'0xc6'
p988
sS'lock_bits'
p989
S'0x0F'
p990
sS'file'
p991
S'ATmegaBOOT_168_pro_8MHz.hex'
p992
sS'path'
p993
S'atmega'
p994
sS'unlock_bits'
p995
S'0x3F'
p996
ssS'build'
p997
(dp998
S'core'
p999
S'arduino'
p1000
sS'mcu'
p1001
S'atmega168'
p1002
sS'f_cpu'
p1003
S'8000000L'
p1004
sS'variant'
p1005
S'standard'
p1006
ssS'name'
p1007
S'Arduino Pro or Pro Mini (3.3V, 8 MHz) w/ ATmega168'
p1008
sS'upload'
p1009
(dp1010
S'protocol'
p1011
S'arduino'
p1012
sS'maximum_size'
p1013
S'14336'
p1014
sS'speed'
p1015
S'19200'
p1016
ssaa(lp1017
S'atmega168'
p1018
a(dp1019
g71
S'/usr/share/arduino/hardware/arduino'
p1020
sS'bootloader'
p1021
(dp1022
S'extended_fuses'
p1023
S'0x00'
p1024
sS'high_fuses'
p1025
S'0xdd'
p1026
sS'low_fuses'
p1027
S'0xff'
p1028
sS'lock_bits'
p1029
S'0x0F'
p1030
sS'file'
p1031
S'ATmegaBOOT_168_ng.hex'
p1032
sS'path'
p1033
S'atmega'
p1034
sS'unlock_bits'
p1035
S'0x3F'
p1036
ssS'build'
p1037
(dp1038
S'core'
p1039
S'arduino'
p1040
sS'mcu'
p1041
S'atmega168'
p1042
sS'f_cpu'
p1043
S'16000000L'
p1044
sS'variant'
p1045
S'standard'
p1046
ssS'name'
p1047
S'Arduino NG or older w/ ATmega168'
p1048
sS'upload'
p1049
(dp1050
S'protocol'
p1051
S'arduino'
p1052
sS'maximum_size'
p1053
S'14336'
p1054
sS'speed'
p1055
S'19200'
p1056
ssaa(lp1057
S'atmega8'
p1058
a(dp1059
g71
S'/usr/share/arduino/hardware/arduino'
p1060
sS'bootloader'
p1061
(dp1062
S'high_fuses'
p1063
S'0xca'
p1064
sS'low_fuses'
p1065
S'0xdf'
p1066
sS'lock_bits'
p1067
S'0x0F'
p1068
sS'file'
p1069
S'ATmegaBOOT-prod-firmware-2009-11-07.hex'
p1070
sS'path'
p1071
S'atmega8'
p1072
sS'unlock_bits'
p1073
S'0x3F'
p1074
ssS'build'
p1075
(dp1076
S'core'
p1077
S'arduino'
p1078
sS'mcu'
p1079
S'atmega8'
p1080
sS'f_cpu'
p1081
S'16000000L'
p1082
sS'variant'
p1083
S'standard'
p1084
ssS'name'
p1085
S'Arduino NG or older w/ ATmega8'
p1086
sS'upload'
p1087
(dp1088
S'protocol'
p1089
S'arduino'
p1090
sS'maximum_size'
p1091
S'7168'
p1092
sS'speed'
p1093
S'19200'
p1094
ssaa(lp1095
S'robotControl'
p1096
a(dp1097
g71
S'/usr/share/arduino/hardware/arduino'
p1098
sS'bootloader'
p1099
(dp1100
S'extended_fuses'
p1101
S'0xcb'
p1102
sS'high_fuses'
p1103
S'0xd8'
p1104
sS'low_fuses'
p1105
S'0xff'
p1106
sS'lock_bits'
p1107
S'0x2F'
p1108
sS'file'
p1109
S'Caterina-Robot-Control.hex'
p1110
sS'path'
p1111
S'caterina-Arduino_Robot'
p1112
sS'unlock_bits'
p1113
S'0x3F'
p1114
ssS'build'
p1115
(dp1116
S'core'
p1117
S'robot'
p1118
sS'f_cpu'
p1119
S'16000000L'
p1120
sS'vid'
p1121
S'0x2341'
p1122
sS'pid'
p1123
S'0x8038'
p1124
sS'variant'
p1125
S'robot_control'
p1126
sS'mcu'
p1127
S'atmega32u4'
p1128
ssS'name'
p1129
S'Arduino Robot Control'
p1130
sS'upload'
p1131
(dp1132
S'protocol'
p1133
S'avr109'
p1134
sS'maximum_size'
p1135
S'28672'
p1136
sS'speed'
p1137
S'57600'
p1138
sS'disable_flushing'
p1139
S'true'
p1140
ssaa(lp1141
S'robotMotor'
p1142
a(dp1143
g71
S'/usr/share/arduino/hardware/arduino'
p1144
sS'bootloader'
p1145
(dp1146
S'extended_fuses'
p1147
S'0xcb'
p1148
sS'high_fuses'
p1149
S'0xd8'
p1150
sS'low_fuses'
p1151
S'0xff'
p1152
sS'lock_bits'
p1153
S'0x2F'
p1154
sS'file'
p1155
S'Caterina-Robot-Motor.hex'
p1156
sS'path'
p1157
S'caterina-Arduino_Robot'
p1158
sS'unlock_bits'
p1159
S'0x3F'
p1160
ssS'build'
p1161
(dp1162
S'core'
p1163
S'robot'
p1164
sS'f_cpu'
p1165
S'16000000L'
p1166
sS'vid'
p1167
S'0x2341'
p1168
sS'pid'
p1169
S'0x8039'
p1170
sS'variant'
p1171
S'robot_motor'
p1172
sS'mcu'
p1173
S'atmega32u4'
p1174
ssS'name'
p1175
S'Arduino Robot Motor'
p1176
sS'upload'
p1177
(dp1178
S'protocol'
p1179
S'avr109'
p1180
sS'maximum_size'
p1181
S'28672'
p1182
sS'speed'
p1183
S'57600'
p1184
sS'disable_flushing'
p1185
S'true'
p1186
ssaatp1187
Rp1188
(dp1189
S'default'
p1190
S'uno'
p1191
sbtp1192
a(S'used_libs'
p1193
(lp1194
S'lib/Roomba'
p1195
aS'/usr/share/arduino/libraries/Servo'
p1196
aS'lib/Motor'
p1197
aS'/usr/share/arduino/hardware/arduino/cores/arduino'
p1198
atp1199
a(S'make'
p1200
S'/usr/bin/make'
p1201
tp1202
a(S'build_dir'
p1203
S'.build/uno'
p1204
tp1205
a(S'cc'
p1206
S'/usr/share/arduino/hardware/tools/avr/bin/avr-gcc'
p1207
tp1208
a(S'cflags'
p1209
g2
(g3
g4
(lp1210
tp1211
Rp1212
tp1213
a(S'cxxflags'
p1214
g2
(g3
g4
(lp1215
S'-fno-exceptions'
p1216
atp1217
Rp1218
tp1219
a(S'arduino_variants_dir'
p1220
S'/usr/share/arduino/hardware/arduino/variants'
p1221
tp1222
a(S'serial'
p1223
S'/usr/bin/picocom'
p1224
tp1225
a(S'stty'
p1226
S'/bin/stty'
p1227
tp1228
a(S'version.txt'
p1229
S'/usr/share/arduino/lib/version.txt'
p1230
tp1231
a(S'arduino_core_dir'
p1232
g1198
tp1233
a(S'boards.txt'
p1234
(lp1235
S'/usr/share/arduino/hardware/arduino/boards.txt'
p1236
atp1237
a(S'avrdude.conf'
p1238
S'/usr/share/arduino/hardware/tools/avrdude.conf'
p1239
tp1240
a(S'deps'
p1241
g2
(g3
g4
(lp1242
S'.build/mega2560/src/dependencies.d'
p1243
aS'.build/mega2560/Roomba/dependencies.d'
p1244
aS'.build/mega2560/arduino/dependencies.d'
p1245
aS'.build/mega2560/Servo/dependencies.d'
p1246
aS'.build/mega2560/Motor/dependencies.d'
p1247
atp1248
Rp1249
tp1250
a.